
Control-module.elf:     file format elf32-avr

Sections:
Idx Name          Size      VMA       LMA       File off  Algn
  0 .data         00000000  00800100  000009d6  00000a6a  2**0
                  CONTENTS, ALLOC, LOAD, DATA
  1 .text         000009d6  00000000  00000000  00000094  2**1
                  CONTENTS, ALLOC, LOAD, READONLY, CODE
  2 .bss          00000019  00800100  00800100  00000a6a  2**0
                  ALLOC
  3 .stab         000006cc  00000000  00000000  00000a6c  2**2
                  CONTENTS, READONLY, DEBUGGING
  4 .stabstr      00000097  00000000  00000000  00001138  2**0
                  CONTENTS, READONLY, DEBUGGING
  5 .comment      0000002f  00000000  00000000  000011cf  2**0
                  CONTENTS, READONLY
  6 .debug_aranges 00000128  00000000  00000000  000011fe  2**0
                  CONTENTS, READONLY, DEBUGGING
  7 .debug_info   00001566  00000000  00000000  00001326  2**0
                  CONTENTS, READONLY, DEBUGGING
  8 .debug_abbrev 0000049b  00000000  00000000  0000288c  2**0
                  CONTENTS, READONLY, DEBUGGING
  9 .debug_line   00000cd8  00000000  00000000  00002d27  2**0
                  CONTENTS, READONLY, DEBUGGING
 10 .debug_frame  000002bc  00000000  00000000  00003a00  2**2
                  CONTENTS, READONLY, DEBUGGING
 11 .debug_str    0000047a  00000000  00000000  00003cbc  2**0
                  CONTENTS, READONLY, DEBUGGING
 12 .debug_loc    00000e7c  00000000  00000000  00004136  2**0
                  CONTENTS, READONLY, DEBUGGING
 13 .debug_ranges 000000e8  00000000  00000000  00004fb2  2**0
                  CONTENTS, READONLY, DEBUGGING

Disassembly of section .text:

00000000 <__vectors>:
   0:	45 c0       	rjmp	.+138    	; 0x8c <__ctors_end>
   2:	00 00       	nop
   4:	53 c0       	rjmp	.+166    	; 0xac <__bad_interrupt>
   6:	00 00       	nop
   8:	51 c0       	rjmp	.+162    	; 0xac <__bad_interrupt>
   a:	00 00       	nop
   c:	4f c0       	rjmp	.+158    	; 0xac <__bad_interrupt>
   e:	00 00       	nop
  10:	4d c0       	rjmp	.+154    	; 0xac <__bad_interrupt>
  12:	00 00       	nop
  14:	4b c0       	rjmp	.+150    	; 0xac <__bad_interrupt>
  16:	00 00       	nop
  18:	49 c0       	rjmp	.+146    	; 0xac <__bad_interrupt>
  1a:	00 00       	nop
  1c:	47 c0       	rjmp	.+142    	; 0xac <__bad_interrupt>
  1e:	00 00       	nop
  20:	45 c0       	rjmp	.+138    	; 0xac <__bad_interrupt>
  22:	00 00       	nop
  24:	43 c0       	rjmp	.+134    	; 0xac <__bad_interrupt>
  26:	00 00       	nop
  28:	41 c0       	rjmp	.+130    	; 0xac <__bad_interrupt>
  2a:	00 00       	nop
  2c:	3f c0       	rjmp	.+126    	; 0xac <__bad_interrupt>
  2e:	00 00       	nop
  30:	3d c0       	rjmp	.+122    	; 0xac <__bad_interrupt>
  32:	00 00       	nop
  34:	3b c0       	rjmp	.+118    	; 0xac <__bad_interrupt>
  36:	00 00       	nop
  38:	39 c0       	rjmp	.+114    	; 0xac <__bad_interrupt>
  3a:	00 00       	nop
  3c:	37 c0       	rjmp	.+110    	; 0xac <__bad_interrupt>
  3e:	00 00       	nop
  40:	35 c0       	rjmp	.+106    	; 0xac <__bad_interrupt>
  42:	00 00       	nop
  44:	33 c0       	rjmp	.+102    	; 0xac <__bad_interrupt>
  46:	00 00       	nop
  48:	31 c0       	rjmp	.+98     	; 0xac <__bad_interrupt>
  4a:	00 00       	nop
  4c:	30 c0       	rjmp	.+96     	; 0xae <__vector_19>
  4e:	00 00       	nop
  50:	2d c0       	rjmp	.+90     	; 0xac <__bad_interrupt>
  52:	00 00       	nop
  54:	2b c0       	rjmp	.+86     	; 0xac <__bad_interrupt>
  56:	00 00       	nop
  58:	29 c0       	rjmp	.+82     	; 0xac <__bad_interrupt>
  5a:	00 00       	nop
  5c:	27 c0       	rjmp	.+78     	; 0xac <__bad_interrupt>
  5e:	00 00       	nop
  60:	25 c0       	rjmp	.+74     	; 0xac <__bad_interrupt>
  62:	00 00       	nop
  64:	23 c0       	rjmp	.+70     	; 0xac <__bad_interrupt>
  66:	00 00       	nop
  68:	21 c0       	rjmp	.+66     	; 0xac <__bad_interrupt>
  6a:	00 00       	nop
  6c:	1f c0       	rjmp	.+62     	; 0xac <__bad_interrupt>
  6e:	00 00       	nop
  70:	1d c0       	rjmp	.+58     	; 0xac <__bad_interrupt>
  72:	00 00       	nop
  74:	1b c0       	rjmp	.+54     	; 0xac <__bad_interrupt>
  76:	00 00       	nop
  78:	19 c0       	rjmp	.+50     	; 0xac <__bad_interrupt>
  7a:	00 00       	nop
  7c:	17 c0       	rjmp	.+46     	; 0xac <__bad_interrupt>
  7e:	00 00       	nop
  80:	15 c0       	rjmp	.+42     	; 0xac <__bad_interrupt>
  82:	00 00       	nop
  84:	13 c0       	rjmp	.+38     	; 0xac <__bad_interrupt>
  86:	00 00       	nop
  88:	11 c0       	rjmp	.+34     	; 0xac <__bad_interrupt>
	...

0000008c <__ctors_end>:
  8c:	11 24       	eor	r1, r1
  8e:	1f be       	out	0x3f, r1	; 63
  90:	cf ef       	ldi	r28, 0xFF	; 255
  92:	d0 e4       	ldi	r29, 0x40	; 64
  94:	de bf       	out	0x3e, r29	; 62
  96:	cd bf       	out	0x3d, r28	; 61

00000098 <__do_clear_bss>:
  98:	21 e0       	ldi	r18, 0x01	; 1
  9a:	a0 e0       	ldi	r26, 0x00	; 0
  9c:	b1 e0       	ldi	r27, 0x01	; 1
  9e:	01 c0       	rjmp	.+2      	; 0xa2 <.do_clear_bss_start>

000000a0 <.do_clear_bss_loop>:
  a0:	1d 92       	st	X+, r1

000000a2 <.do_clear_bss_start>:
  a2:	a9 31       	cpi	r26, 0x19	; 25
  a4:	b2 07       	cpc	r27, r18
  a6:	e1 f7       	brne	.-8      	; 0xa0 <.do_clear_bss_loop>
  a8:	75 d0       	rcall	.+234    	; 0x194 <main>
  aa:	93 c4       	rjmp	.+2342   	; 0x9d2 <_exit>

000000ac <__bad_interrupt>:
  ac:	a9 cf       	rjmp	.-174    	; 0x0 <__vectors>

000000ae <__vector_19>:
#include <avr/interrupt.h>
#include "Servo.h"


ISR(SPI_STC_vect)
{
  ae:	1f 92       	push	r1
  b0:	0f 92       	push	r0
  b2:	0f b6       	in	r0, 0x3f	; 63
  b4:	0f 92       	push	r0
  b6:	11 24       	eor	r1, r1
  b8:	0b b6       	in	r0, 0x3b	; 59
  ba:	0f 92       	push	r0
  bc:	2f 93       	push	r18
  be:	3f 93       	push	r19
  c0:	4f 93       	push	r20
  c2:	5f 93       	push	r21
  c4:	6f 93       	push	r22
  c6:	7f 93       	push	r23
  c8:	8f 93       	push	r24
  ca:	9f 93       	push	r25
  cc:	af 93       	push	r26
  ce:	bf 93       	push	r27
  d0:	ef 93       	push	r30
  d2:	ff 93       	push	r31
	data = SPDR;
  d4:	8e b5       	in	r24, 0x2e	; 46
  d6:	80 93 0d 01 	sts	0x010D, r24

	if(waiting_for_instruction == 1)
  da:	80 91 0e 01 	lds	r24, 0x010E
  de:	81 30       	cpi	r24, 0x01	; 1
  e0:	f1 f4       	brne	.+60     	; 0x11e <__vector_19+0x70>
	{
		if(data == 0b10000100)
  e2:	80 91 0d 01 	lds	r24, 0x010D
  e6:	84 38       	cpi	r24, 0x84	; 132
  e8:	31 f4       	brne	.+12     	; 0xf6 <__vector_19+0x48>
		{
			waiting_for_instruction = 0;
  ea:	10 92 0e 01 	sts	0x010E, r1
			component = SENSOR;
  ee:	82 e0       	ldi	r24, 0x02	; 2
  f0:	80 93 08 01 	sts	0x0108, r24
  f4:	3c c0       	rjmp	.+120    	; 0x16e <__vector_19+0xc0>
			
		} else if (data == 0b10000101)
  f6:	80 91 0d 01 	lds	r24, 0x010D
  fa:	85 38       	cpi	r24, 0x85	; 133
  fc:	31 f4       	brne	.+12     	; 0x10a <__vector_19+0x5c>
		{
			waiting_for_instruction = 0;
  fe:	10 92 0e 01 	sts	0x010E, r1
			component = WHEEL;
 102:	83 e0       	ldi	r24, 0x03	; 3
 104:	80 93 08 01 	sts	0x0108, r24
 108:	32 c0       	rjmp	.+100    	; 0x16e <__vector_19+0xc0>
			
		} else if(data == 0b10000110)
 10a:	80 91 0d 01 	lds	r24, 0x010D
 10e:	86 38       	cpi	r24, 0x86	; 134
 110:	71 f5       	brne	.+92     	; 0x16e <__vector_19+0xc0>
		{
			waiting_for_instruction = 0;
 112:	10 92 0e 01 	sts	0x010E, r1
			component = ARM;
 116:	81 e0       	ldi	r24, 0x01	; 1
 118:	80 93 08 01 	sts	0x0108, r24
 11c:	28 c0       	rjmp	.+80     	; 0x16e <__vector_19+0xc0>
			
		}
	}
	else
	{
		if(component == SENSOR)
 11e:	80 91 08 01 	lds	r24, 0x0108
 122:	82 30       	cpi	r24, 0x02	; 2
 124:	49 f4       	brne	.+18     	; 0x138 <__vector_19+0x8a>
		{
			sensor_data = data;
 126:	80 91 0d 01 	lds	r24, 0x010D
 12a:	80 93 01 01 	sts	0x0101, r24
			controlAlgorithm();
 12e:	27 d1       	rcall	.+590    	; 0x37e <controlAlgorithm>
			waiting_for_instruction = 1;
 130:	81 e0       	ldi	r24, 0x01	; 1
 132:	80 93 0e 01 	sts	0x010E, r24
 136:	1b c0       	rjmp	.+54     	; 0x16e <__vector_19+0xc0>
		}else if (component == ARM)
 138:	80 91 08 01 	lds	r24, 0x0108
 13c:	81 30       	cpi	r24, 0x01	; 1
 13e:	59 f4       	brne	.+22     	; 0x156 <__vector_19+0xa8>
		{
			robot_arm_data = data;
 140:	80 91 0d 01 	lds	r24, 0x010D
 144:	80 93 00 01 	sts	0x0100, r24
			move_Arm(robot_arm_data);
 148:	80 91 00 01 	lds	r24, 0x0100
 14c:	ec d2       	rcall	.+1496   	; 0x726 <move_Arm>
			waiting_for_instruction = 1;
 14e:	81 e0       	ldi	r24, 0x01	; 1
 150:	80 93 0e 01 	sts	0x010E, r24
 154:	0c c0       	rjmp	.+24     	; 0x16e <__vector_19+0xc0>
		} else if (component == WHEEL)
 156:	80 91 08 01 	lds	r24, 0x0108
 15a:	83 30       	cpi	r24, 0x03	; 3
 15c:	41 f4       	brne	.+16     	; 0x16e <__vector_19+0xc0>
		{
			wheel_steering_data = data;
 15e:	80 91 0d 01 	lds	r24, 0x010D
 162:	80 93 03 01 	sts	0x0103, r24
			moveRobot();
 166:	95 d1       	rcall	.+810    	; 0x492 <moveRobot>
			waiting_for_instruction = 1;
 168:	81 e0       	ldi	r24, 0x01	; 1
 16a:	80 93 0e 01 	sts	0x010E, r24
		}
	}
}
 16e:	ff 91       	pop	r31
 170:	ef 91       	pop	r30
 172:	bf 91       	pop	r27
 174:	af 91       	pop	r26
 176:	9f 91       	pop	r25
 178:	8f 91       	pop	r24
 17a:	7f 91       	pop	r23
 17c:	6f 91       	pop	r22
 17e:	5f 91       	pop	r21
 180:	4f 91       	pop	r20
 182:	3f 91       	pop	r19
 184:	2f 91       	pop	r18
 186:	0f 90       	pop	r0
 188:	0b be       	out	0x3b, r0	; 59
 18a:	0f 90       	pop	r0
 18c:	0f be       	out	0x3f, r0	; 63
 18e:	0f 90       	pop	r0
 190:	1f 90       	pop	r1
 192:	18 95       	reti

00000194 <main>:


int main(void)
{
	SPI_Init_Slave();
 194:	15 d4       	rcall	.+2090   	; 0x9c0 <SPI_Init_Slave>
	driving_setup();
 196:	ac d0       	rcall	.+344    	; 0x2f0 <driving_setup>
	Arm_Init();
 198:	c5 d1       	rcall	.+906    	; 0x524 <Arm_Init>
 19a:	ff cf       	rjmp	.-2      	; 0x19a <main+0x6>

0000019c <getError>:
#include "Control_wheel_steering.h"
#include "Slave_control.h"
#include <stdlib.h>

int8_t getError()
{
 19c:	cf 93       	push	r28
 19e:	df 93       	push	r29
 1a0:	00 d0       	rcall	.+0      	; 0x1a2 <getError+0x6>
 1a2:	1f 92       	push	r1
 1a4:	cd b7       	in	r28, 0x3d	; 61
 1a6:	de b7       	in	r29, 0x3e	; 62
	volatile int8_t res = 0;
 1a8:	19 82       	std	Y+1, r1	; 0x01
	volatile int8_t marker = 0;
 1aa:	1a 82       	std	Y+2, r1	; 0x02
	volatile uint8_t counter1 = 0;
 1ac:	1b 82       	std	Y+3, r1	; 0x03
	error = 0;
 1ae:	10 92 11 01 	sts	0x0111, r1
	uint8_t line_data;
	line_data = sensor_data;
 1b2:	40 91 01 01 	lds	r20, 0x0101
 1b6:	86 e0       	ldi	r24, 0x06	; 6
 1b8:	90 e0       	ldi	r25, 0x00	; 0
	
	for (int8_t noShift = 6; noShift >= 0; noShift--)
	{
		res = ((line_data >> noShift) & 0x01);
 1ba:	50 e0       	ldi	r21, 0x00	; 0
 1bc:	9a 01       	movw	r18, r20
 1be:	08 2e       	mov	r0, r24
 1c0:	02 c0       	rjmp	.+4      	; 0x1c6 <getError+0x2a>
 1c2:	35 95       	asr	r19
 1c4:	27 95       	ror	r18
 1c6:	0a 94       	dec	r0
 1c8:	e2 f7       	brpl	.-8      	; 0x1c2 <getError+0x26>
 1ca:	21 70       	andi	r18, 0x01	; 1
 1cc:	33 27       	eor	r19, r19
 1ce:	29 83       	std	Y+1, r18	; 0x01
		if(res == 1)
 1d0:	29 81       	ldd	r18, Y+1	; 0x01
 1d2:	21 30       	cpi	r18, 0x01	; 1
 1d4:	39 f4       	brne	.+14     	; 0x1e4 <getError+0x48>
		{
			marker = marker + (7 - noShift);
 1d6:	2a 81       	ldd	r18, Y+2	; 0x02
 1d8:	29 5f       	subi	r18, 0xF9	; 249
 1da:	28 1b       	sub	r18, r24
 1dc:	2a 83       	std	Y+2, r18	; 0x02
			counter1++;
 1de:	2b 81       	ldd	r18, Y+3	; 0x03
 1e0:	2f 5f       	subi	r18, 0xFF	; 255
 1e2:	2b 83       	std	Y+3, r18	; 0x03
 1e4:	01 97       	sbiw	r24, 0x01	; 1
 1e6:	50 f7       	brcc	.-44     	; 0x1bc <getError+0x20>
		}
	}
	if(counter1 == 1)
 1e8:	8b 81       	ldd	r24, Y+3	; 0x03
 1ea:	81 30       	cpi	r24, 0x01	; 1
 1ec:	39 f4       	brne	.+14     	; 0x1fc <getError+0x60>
	{
		error = marker + (marker-1);
 1ee:	9a 81       	ldd	r25, Y+2	; 0x02
 1f0:	8a 81       	ldd	r24, Y+2	; 0x02
 1f2:	89 0f       	add	r24, r25
 1f4:	81 50       	subi	r24, 0x01	; 1
 1f6:	80 93 11 01 	sts	0x0111, r24
 1fa:	44 c0       	rjmp	.+136    	; 0x284 <getError+0xe8>
	} else if(counter1 == 2)
 1fc:	8b 81       	ldd	r24, Y+3	; 0x03
 1fe:	82 30       	cpi	r24, 0x02	; 2
 200:	29 f4       	brne	.+10     	; 0x20c <getError+0x70>

	{
		error = marker-1;
 202:	8a 81       	ldd	r24, Y+2	; 0x02
 204:	81 50       	subi	r24, 0x01	; 1
 206:	80 93 11 01 	sts	0x0111, r24
 20a:	3c c0       	rjmp	.+120    	; 0x284 <getError+0xe8>
	} else if(counter1 == 3)
 20c:	8b 81       	ldd	r24, Y+3	; 0x03
 20e:	83 30       	cpi	r24, 0x03	; 3
 210:	a1 f4       	brne	.+40     	; 0x23a <getError+0x9e>

	{
		error = marker*2;
 212:	8a 81       	ldd	r24, Y+2	; 0x02
 214:	88 0f       	add	r24, r24
 216:	80 93 11 01 	sts	0x0111, r24
		error = error/(0b00000011);
 21a:	80 91 11 01 	lds	r24, 0x0111
 21e:	96 e5       	ldi	r25, 0x56	; 86
 220:	89 02       	muls	r24, r25
 222:	91 2d       	mov	r25, r1
 224:	11 24       	eor	r1, r1
 226:	87 fd       	sbrc	r24, 7
 228:	93 95       	inc	r25
 22a:	90 93 11 01 	sts	0x0111, r25
		error = error - 1;
 22e:	80 91 11 01 	lds	r24, 0x0111
 232:	81 50       	subi	r24, 0x01	; 1
 234:	80 93 11 01 	sts	0x0111, r24
 238:	25 c0       	rjmp	.+74     	; 0x284 <getError+0xe8>
		
	} else if(counter1 == 4 || counter1 == 5)
 23a:	8b 81       	ldd	r24, Y+3	; 0x03
 23c:	84 30       	cpi	r24, 0x04	; 4
 23e:	19 f0       	breq	.+6      	; 0x246 <getError+0xaa>
 240:	8b 81       	ldd	r24, Y+3	; 0x03
 242:	85 30       	cpi	r24, 0x05	; 5
 244:	e1 f4       	brne	.+56     	; 0x27e <getError+0xe2>
	{
		if(marker == 10)
 246:	8a 81       	ldd	r24, Y+2	; 0x02
 248:	8a 30       	cpi	r24, 0x0A	; 10
 24a:	21 f4       	brne	.+8      	; 0x254 <getError+0xb8>
		{
			error = 50;
 24c:	82 e3       	ldi	r24, 0x32	; 50
 24e:	80 93 11 01 	sts	0x0111, r24
 252:	18 c0       	rjmp	.+48     	; 0x284 <getError+0xe8>
		} else if(marker == 22)
 254:	8a 81       	ldd	r24, Y+2	; 0x02
 256:	86 31       	cpi	r24, 0x16	; 22
 258:	21 f4       	brne	.+8      	; 0x262 <getError+0xc6>
		{
			error = 50;
 25a:	82 e3       	ldi	r24, 0x32	; 50
 25c:	80 93 11 01 	sts	0x0111, r24
 260:	11 c0       	rjmp	.+34     	; 0x284 <getError+0xe8>
		} else if(marker == 15)
 262:	8a 81       	ldd	r24, Y+2	; 0x02
 264:	8f 30       	cpi	r24, 0x0F	; 15
 266:	21 f4       	brne	.+8      	; 0x270 <getError+0xd4>
		{
			error = 50;
 268:	82 e3       	ldi	r24, 0x32	; 50
 26a:	80 93 11 01 	sts	0x0111, r24
 26e:	0a c0       	rjmp	.+20     	; 0x284 <getError+0xe8>
		} else if(marker == 25)
 270:	8a 81       	ldd	r24, Y+2	; 0x02
 272:	89 31       	cpi	r24, 0x19	; 25
 274:	39 f4       	brne	.+14     	; 0x284 <getError+0xe8>
		{
			error = 50;
 276:	82 e3       	ldi	r24, 0x32	; 50
 278:	80 93 11 01 	sts	0x0111, r24
 27c:	03 c0       	rjmp	.+6      	; 0x284 <getError+0xe8>
		}
	} 	
	
	 else
	{
		error = -8;
 27e:	88 ef       	ldi	r24, 0xF8	; 248
 280:	80 93 11 01 	sts	0x0111, r24
	}
	error = 7 - error;
 284:	90 91 11 01 	lds	r25, 0x0111
 288:	87 e0       	ldi	r24, 0x07	; 7
 28a:	89 1b       	sub	r24, r25
 28c:	80 93 11 01 	sts	0x0111, r24
	return error;
 290:	80 91 11 01 	lds	r24, 0x0111
}
 294:	0f 90       	pop	r0
 296:	0f 90       	pop	r0
 298:	0f 90       	pop	r0
 29a:	df 91       	pop	r29
 29c:	cf 91       	pop	r28
 29e:	08 95       	ret

000002a0 <calculateSpeed>:
	}

}

int8_t calculateSpeed(int8_t error)
{
 2a0:	cf 93       	push	r28
 2a2:	df 93       	push	r29
 2a4:	00 d0       	rcall	.+0      	; 0x2a6 <calculateSpeed+0x6>
 2a6:	cd b7       	in	r28, 0x3d	; 61
 2a8:	de b7       	in	r29, 0x3e	; 62
	volatile int16_t speed = 0;
 2aa:	1a 82       	std	Y+2, r1	; 0x02
 2ac:	19 82       	std	Y+1, r1	; 0x01
	int8_t Kp = 20;
	int8_t Kd = 5;
	
	speed = Kp * error + Kd * (error - prevError);
 2ae:	28 2f       	mov	r18, r24
 2b0:	33 27       	eor	r19, r19
 2b2:	27 fd       	sbrc	r18, 7
 2b4:	30 95       	com	r19
 2b6:	90 91 0b 01 	lds	r25, 0x010B
 2ba:	29 1b       	sub	r18, r25
 2bc:	31 09       	sbc	r19, r1
 2be:	97 fd       	sbrc	r25, 7
 2c0:	33 95       	inc	r19
 2c2:	a9 01       	movw	r20, r18
 2c4:	44 0f       	add	r20, r20
 2c6:	55 1f       	adc	r21, r21
 2c8:	44 0f       	add	r20, r20
 2ca:	55 1f       	adc	r21, r21
 2cc:	24 0f       	add	r18, r20
 2ce:	35 1f       	adc	r19, r21
 2d0:	94 e1       	ldi	r25, 0x14	; 20
 2d2:	89 02       	muls	r24, r25
 2d4:	20 0d       	add	r18, r0
 2d6:	31 1d       	adc	r19, r1
 2d8:	11 24       	eor	r1, r1
 2da:	3a 83       	std	Y+2, r19	; 0x02
 2dc:	29 83       	std	Y+1, r18	; 0x01

	prevError = error;
 2de:	80 93 0b 01 	sts	0x010B, r24
	return speed;
 2e2:	89 81       	ldd	r24, Y+1	; 0x01
 2e4:	9a 81       	ldd	r25, Y+2	; 0x02
}
 2e6:	0f 90       	pop	r0
 2e8:	0f 90       	pop	r0
 2ea:	df 91       	pop	r29
 2ec:	cf 91       	pop	r28
 2ee:	08 95       	ret

000002f0 <driving_setup>:

void driving_setup()
{
	TCCR1A    = 0b11110001; //Sets the mode to Phase Correct PWM and sets the Comp to set on incrementing.
 2f0:	81 ef       	ldi	r24, 0xF1	; 241
 2f2:	80 93 80 00 	sts	0x0080, r24
	TCCR1B = 3; //Sets the prescaling to 8
 2f6:	83 e0       	ldi	r24, 0x03	; 3
 2f8:	80 93 81 00 	sts	0x0081, r24
	TCNT1 = 0;
 2fc:	10 92 85 00 	sts	0x0085, r1
 300:	10 92 84 00 	sts	0x0084, r1
	OCR1A = 255;
 304:	8f ef       	ldi	r24, 0xFF	; 255
 306:	90 e0       	ldi	r25, 0x00	; 0
 308:	90 93 89 00 	sts	0x0089, r25
 30c:	80 93 88 00 	sts	0x0088, r24
	OCR1B = 255;
 310:	90 93 8b 00 	sts	0x008B, r25
 314:	80 93 8a 00 	sts	0x008A, r24
	DDRD |= (1 << PORTD4)|(1 << PORTD5)|(1 << PORTD6)|(1 << PORTD7);
 318:	8a b1       	in	r24, 0x0a	; 10
 31a:	80 6f       	ori	r24, 0xF0	; 240
 31c:	8a b9       	out	0x0a, r24	; 10
 31e:	08 95       	ret

00000320 <drive>:
}

void drive(int right_dir, int left_dir, uint16_t leftSpeed, uint16_t rightSpeed)
{
	if(right_dir == 1)
 320:	01 97       	sbiw	r24, 0x01	; 1
 322:	11 f4       	brne	.+4      	; 0x328 <drive+0x8>
	{
		PORTD &= ~(1 << PORTD7);
 324:	5f 98       	cbi	0x0b, 7	; 11
 326:	01 c0       	rjmp	.+2      	; 0x32a <drive+0xa>
	}
	else
	{
		PORTD |= (1 << PORTD7);
 328:	5f 9a       	sbi	0x0b, 7	; 11
	}
	if(left_dir == 1)
 32a:	61 30       	cpi	r22, 0x01	; 1
 32c:	71 05       	cpc	r23, r1
 32e:	11 f4       	brne	.+4      	; 0x334 <drive+0x14>
	{
		PORTD |= (1 << PORTD6);
 330:	5e 9a       	sbi	0x0b, 6	; 11
 332:	01 c0       	rjmp	.+2      	; 0x336 <drive+0x16>
	}
	else
	{
		PORTD &= ~(1 << PORTD6);
 334:	5e 98       	cbi	0x0b, 6	; 11
	}
	OCR1A = rightSpeed;
 336:	30 93 89 00 	sts	0x0089, r19
 33a:	20 93 88 00 	sts	0x0088, r18
	OCR1B = leftSpeed;
 33e:	50 93 8b 00 	sts	0x008B, r21
 342:	40 93 8a 00 	sts	0x008A, r20
 346:	08 95       	ret

00000348 <drive_forward>:
}

void drive_forward(uint8_t speed)
{
	drive(1, 1, speed, speed);
 348:	28 2f       	mov	r18, r24
 34a:	30 e0       	ldi	r19, 0x00	; 0
 34c:	48 2f       	mov	r20, r24
 34e:	50 e0       	ldi	r21, 0x00	; 0
 350:	61 e0       	ldi	r22, 0x01	; 1
 352:	70 e0       	ldi	r23, 0x00	; 0
 354:	81 e0       	ldi	r24, 0x01	; 1
 356:	90 e0       	ldi	r25, 0x00	; 0
 358:	e3 cf       	rjmp	.-58     	; 0x320 <drive>

0000035a <drive_backwards>:
}

void drive_backwards(uint8_t speed)
{
	drive(0, 0, speed, speed);
 35a:	28 2f       	mov	r18, r24
 35c:	30 e0       	ldi	r19, 0x00	; 0
 35e:	48 2f       	mov	r20, r24
 360:	50 e0       	ldi	r21, 0x00	; 0
 362:	60 e0       	ldi	r22, 0x00	; 0
 364:	70 e0       	ldi	r23, 0x00	; 0
 366:	80 e0       	ldi	r24, 0x00	; 0
 368:	90 e0       	ldi	r25, 0x00	; 0
 36a:	da cf       	rjmp	.-76     	; 0x320 <drive>

0000036c <stop>:
}

void stop()
{
	drive(1, 1, 255, 255);
 36c:	2f ef       	ldi	r18, 0xFF	; 255
 36e:	30 e0       	ldi	r19, 0x00	; 0
 370:	4f ef       	ldi	r20, 0xFF	; 255
 372:	50 e0       	ldi	r21, 0x00	; 0
 374:	61 e0       	ldi	r22, 0x01	; 1
 376:	70 e0       	ldi	r23, 0x00	; 0
 378:	81 e0       	ldi	r24, 0x01	; 1
 37a:	90 e0       	ldi	r25, 0x00	; 0
 37c:	d1 cf       	rjmp	.-94     	; 0x320 <drive>

0000037e <controlAlgorithm>:
	return error;
}

void controlAlgorithm()
{
	error = getError();
 37e:	0e df       	rcall	.-484    	; 0x19c <getError>
 380:	80 93 11 01 	sts	0x0111, r24
	
	
	if(error == 15)
 384:	80 91 11 01 	lds	r24, 0x0111
 388:	8f 30       	cpi	r24, 0x0F	; 15
 38a:	99 f4       	brne	.+38     	; 0x3b2 <controlAlgorithm+0x34>
	{
		rightWheelSpeed = rightWheelSpeed;
 38c:	80 91 07 01 	lds	r24, 0x0107
 390:	80 93 07 01 	sts	0x0107, r24
		leftWheelSpeed = leftWheelSpeed;
 394:	80 91 04 01 	lds	r24, 0x0104
 398:	80 93 04 01 	sts	0x0104, r24
		drive(1, 1, leftWheelSpeed, rightWheelSpeed);
 39c:	20 91 07 01 	lds	r18, 0x0107
 3a0:	40 91 04 01 	lds	r20, 0x0104
 3a4:	30 e0       	ldi	r19, 0x00	; 0
 3a6:	50 e0       	ldi	r21, 0x00	; 0
 3a8:	61 e0       	ldi	r22, 0x01	; 1
 3aa:	70 e0       	ldi	r23, 0x00	; 0
 3ac:	81 e0       	ldi	r24, 0x01	; 1
 3ae:	90 e0       	ldi	r25, 0x00	; 0
 3b0:	b7 cf       	rjmp	.-146    	; 0x320 <drive>
	} else if(error == -43)
 3b2:	80 91 11 01 	lds	r24, 0x0111
 3b6:	85 3d       	cpi	r24, 0xD5	; 213
 3b8:	09 f4       	brne	.+2      	; 0x3bc <controlAlgorithm+0x3e>
	{
		stop();
 3ba:	d8 cf       	rjmp	.-80     	; 0x36c <stop>
	}	
	else
	{	
		midspeed = 180;
 3bc:	84 eb       	ldi	r24, 0xB4	; 180
 3be:	80 93 02 01 	sts	0x0102, r24
		int16_t speed = calculateSpeed(error);
 3c2:	80 91 11 01 	lds	r24, 0x0111
 3c6:	6c df       	rcall	.-296    	; 0x2a0 <calculateSpeed>
 3c8:	48 2f       	mov	r20, r24
 3ca:	55 27       	eor	r21, r21
 3cc:	47 fd       	sbrc	r20, 7
 3ce:	50 95       	com	r21
		if ((midspeed-speed) < 10)
 3d0:	90 91 02 01 	lds	r25, 0x0102
 3d4:	29 2f       	mov	r18, r25
 3d6:	30 e0       	ldi	r19, 0x00	; 0
 3d8:	b9 01       	movw	r22, r18
 3da:	64 1b       	sub	r22, r20
 3dc:	75 0b       	sbc	r23, r21
 3de:	6a 30       	cpi	r22, 0x0A	; 10
 3e0:	71 05       	cpc	r23, r1
 3e2:	24 f4       	brge	.+8      	; 0x3ec <controlAlgorithm+0x6e>
		{
			rightWheelSpeed = 3;
 3e4:	63 e0       	ldi	r22, 0x03	; 3
 3e6:	60 93 07 01 	sts	0x0107, r22
 3ea:	0b c0       	rjmp	.+22     	; 0x402 <controlAlgorithm+0x84>
		}
		else if ((midspeed-speed) > 235)
 3ec:	6c 3e       	cpi	r22, 0xEC	; 236
 3ee:	71 05       	cpc	r23, r1
 3f0:	24 f0       	brlt	.+8      	; 0x3fa <controlAlgorithm+0x7c>
		{
			rightWheelSpeed = 248;
 3f2:	68 ef       	ldi	r22, 0xF8	; 248
 3f4:	60 93 07 01 	sts	0x0107, r22
 3f8:	04 c0       	rjmp	.+8      	; 0x402 <controlAlgorithm+0x84>
		}
		else
		{
			rightWheelSpeed = midspeed - speed;
 3fa:	69 2f       	mov	r22, r25
 3fc:	68 1b       	sub	r22, r24
 3fe:	60 93 07 01 	sts	0x0107, r22
		}
		
		if ((midspeed+speed) < 10)
 402:	24 0f       	add	r18, r20
 404:	35 1f       	adc	r19, r21
 406:	2a 30       	cpi	r18, 0x0A	; 10
 408:	31 05       	cpc	r19, r1
 40a:	24 f4       	brge	.+8      	; 0x414 <controlAlgorithm+0x96>
		{
			leftWheelSpeed = 3;
 40c:	83 e0       	ldi	r24, 0x03	; 3
 40e:	80 93 04 01 	sts	0x0104, r24
 412:	0a c0       	rjmp	.+20     	; 0x428 <controlAlgorithm+0xaa>
		}
		else if ((midspeed+speed) > 235)
 414:	2c 3e       	cpi	r18, 0xEC	; 236
 416:	31 05       	cpc	r19, r1
 418:	24 f0       	brlt	.+8      	; 0x422 <controlAlgorithm+0xa4>
		{
			leftWheelSpeed = 248;
 41a:	88 ef       	ldi	r24, 0xF8	; 248
 41c:	80 93 04 01 	sts	0x0104, r24
 420:	03 c0       	rjmp	.+6      	; 0x428 <controlAlgorithm+0xaa>
		}
		else
		{
			leftWheelSpeed = midspeed + speed;
 422:	98 0f       	add	r25, r24
 424:	90 93 04 01 	sts	0x0104, r25
		}
		drive(1, 1, leftWheelSpeed, rightWheelSpeed);
 428:	20 91 07 01 	lds	r18, 0x0107
 42c:	40 91 04 01 	lds	r20, 0x0104
 430:	30 e0       	ldi	r19, 0x00	; 0
 432:	50 e0       	ldi	r21, 0x00	; 0
 434:	61 e0       	ldi	r22, 0x01	; 1
 436:	70 e0       	ldi	r23, 0x00	; 0
 438:	81 e0       	ldi	r24, 0x01	; 1
 43a:	90 e0       	ldi	r25, 0x00	; 0
 43c:	71 cf       	rjmp	.-286    	; 0x320 <drive>

0000043e <drive_right_forward>:
	drive(1, 1, 255, 255);
}

void drive_right_forward(uint8_t speed)
{
	drive(1, 1, speed - 40, speed + 40);
 43e:	48 2f       	mov	r20, r24
 440:	50 e0       	ldi	r21, 0x00	; 0
 442:	9a 01       	movw	r18, r20
 444:	28 5d       	subi	r18, 0xD8	; 216
 446:	3f 4f       	sbci	r19, 0xFF	; 255
 448:	48 52       	subi	r20, 0x28	; 40
 44a:	51 09       	sbc	r21, r1
 44c:	61 e0       	ldi	r22, 0x01	; 1
 44e:	70 e0       	ldi	r23, 0x00	; 0
 450:	81 e0       	ldi	r24, 0x01	; 1
 452:	90 e0       	ldi	r25, 0x00	; 0
 454:	65 cf       	rjmp	.-310    	; 0x320 <drive>

00000456 <drive_left_forward>:
}

void drive_left_forward(uint8_t speed)
{
	drive(1, 1, speed + 40, speed - 40);
 456:	48 2f       	mov	r20, r24
 458:	50 e0       	ldi	r21, 0x00	; 0
 45a:	9a 01       	movw	r18, r20
 45c:	28 52       	subi	r18, 0x28	; 40
 45e:	31 09       	sbc	r19, r1
 460:	48 5d       	subi	r20, 0xD8	; 216
 462:	5f 4f       	sbci	r21, 0xFF	; 255
 464:	61 e0       	ldi	r22, 0x01	; 1
 466:	70 e0       	ldi	r23, 0x00	; 0
 468:	81 e0       	ldi	r24, 0x01	; 1
 46a:	90 e0       	ldi	r25, 0x00	; 0
 46c:	59 cf       	rjmp	.-334    	; 0x320 <drive>

0000046e <rotateCCW>:
}

void rotateCCW()
{
	uint8_t speed = 160;
	drive(1, 0, speed, speed);
 46e:	20 ea       	ldi	r18, 0xA0	; 160
 470:	30 e0       	ldi	r19, 0x00	; 0
 472:	40 ea       	ldi	r20, 0xA0	; 160
 474:	50 e0       	ldi	r21, 0x00	; 0
 476:	60 e0       	ldi	r22, 0x00	; 0
 478:	70 e0       	ldi	r23, 0x00	; 0
 47a:	81 e0       	ldi	r24, 0x01	; 1
 47c:	90 e0       	ldi	r25, 0x00	; 0
 47e:	50 cf       	rjmp	.-352    	; 0x320 <drive>

00000480 <rotateCW>:
}

void rotateCW()
{
	uint8_t speed = 160;
	drive(0, 1, speed, speed);
 480:	20 ea       	ldi	r18, 0xA0	; 160
 482:	30 e0       	ldi	r19, 0x00	; 0
 484:	40 ea       	ldi	r20, 0xA0	; 160
 486:	50 e0       	ldi	r21, 0x00	; 0
 488:	61 e0       	ldi	r22, 0x01	; 1
 48a:	70 e0       	ldi	r23, 0x00	; 0
 48c:	80 e0       	ldi	r24, 0x00	; 0
 48e:	90 e0       	ldi	r25, 0x00	; 0
 490:	47 cf       	rjmp	.-370    	; 0x320 <drive>

00000492 <moveRobot>:

void moveRobot()
{
	uint8_t FASTSPEED = 80;
	uint8_t SLOWSPEED = 200;
	if(((wheel_steering_data & 0x08) >> 3) == 1)
 492:	80 91 03 01 	lds	r24, 0x0103
 496:	83 ff       	sbrs	r24, 3
 498:	1d c0       	rjmp	.+58     	; 0x4d4 <moveRobot+0x42>
	{
		if(wheel_steering_data == 0b00001100)
 49a:	80 91 03 01 	lds	r24, 0x0103
 49e:	8c 30       	cpi	r24, 0x0C	; 12
 4a0:	11 f4       	brne	.+4      	; 0x4a6 <moveRobot+0x14>
		{
			drive_forward(FASTSPEED);
 4a2:	80 e5       	ldi	r24, 0x50	; 80
 4a4:	51 cf       	rjmp	.-350    	; 0x348 <drive_forward>
		} else if(wheel_steering_data == 0b00001011)
 4a6:	80 91 03 01 	lds	r24, 0x0103
 4aa:	8b 30       	cpi	r24, 0x0B	; 11
 4ac:	11 f4       	brne	.+4      	; 0x4b2 <moveRobot+0x20>
		{
			drive_left_forward(FASTSPEED);
 4ae:	80 e5       	ldi	r24, 0x50	; 80
 4b0:	d2 cf       	rjmp	.-92     	; 0x456 <drive_left_forward>
		} else if(wheel_steering_data == 0b00001010)
 4b2:	80 91 03 01 	lds	r24, 0x0103
 4b6:	8a 30       	cpi	r24, 0x0A	; 10
 4b8:	11 f4       	brne	.+4      	; 0x4be <moveRobot+0x2c>
		{
			drive_right_forward(FASTSPEED);
 4ba:	80 e5       	ldi	r24, 0x50	; 80
 4bc:	c0 cf       	rjmp	.-128    	; 0x43e <drive_right_forward>
		} else if(wheel_steering_data == 0b00001001)
 4be:	80 91 03 01 	lds	r24, 0x0103
 4c2:	89 30       	cpi	r24, 0x09	; 9
 4c4:	11 f4       	brne	.+4      	; 0x4ca <moveRobot+0x38>
		{
			drive_backwards(FASTSPEED);
 4c6:	80 e5       	ldi	r24, 0x50	; 80
 4c8:	48 cf       	rjmp	.-368    	; 0x35a <drive_backwards>
		} else if(wheel_steering_data == 0b00001000)
 4ca:	80 91 03 01 	lds	r24, 0x0103
 4ce:	88 30       	cpi	r24, 0x08	; 8
 4d0:	41 f5       	brne	.+80     	; 0x522 <moveRobot+0x90>
		{
			stop();
 4d2:	4c cf       	rjmp	.-360    	; 0x36c <stop>
		}
	}	else
	{
		if(wheel_steering_data == 0b00000100)
 4d4:	80 91 03 01 	lds	r24, 0x0103
 4d8:	84 30       	cpi	r24, 0x04	; 4
 4da:	11 f4       	brne	.+4      	; 0x4e0 <moveRobot+0x4e>
		{
			drive_forward(SLOWSPEED);
 4dc:	88 ec       	ldi	r24, 0xC8	; 200
 4de:	34 cf       	rjmp	.-408    	; 0x348 <drive_forward>
		} else if(wheel_steering_data == 0b00000011)
 4e0:	80 91 03 01 	lds	r24, 0x0103
 4e4:	83 30       	cpi	r24, 0x03	; 3
 4e6:	11 f4       	brne	.+4      	; 0x4ec <moveRobot+0x5a>
		{
			drive_left_forward(SLOWSPEED);
 4e8:	88 ec       	ldi	r24, 0xC8	; 200
 4ea:	b5 cf       	rjmp	.-150    	; 0x456 <drive_left_forward>
		} else if(wheel_steering_data == 0b00000010)
 4ec:	80 91 03 01 	lds	r24, 0x0103
 4f0:	82 30       	cpi	r24, 0x02	; 2
 4f2:	11 f4       	brne	.+4      	; 0x4f8 <moveRobot+0x66>
		{
			drive_right_forward(SLOWSPEED);
 4f4:	88 ec       	ldi	r24, 0xC8	; 200
 4f6:	a3 cf       	rjmp	.-186    	; 0x43e <drive_right_forward>
		} else if(wheel_steering_data == 0b00000001)
 4f8:	80 91 03 01 	lds	r24, 0x0103
 4fc:	81 30       	cpi	r24, 0x01	; 1
 4fe:	11 f4       	brne	.+4      	; 0x504 <moveRobot+0x72>
		{
			drive_backwards(SLOWSPEED);
 500:	88 ec       	ldi	r24, 0xC8	; 200
 502:	2b cf       	rjmp	.-426    	; 0x35a <drive_backwards>
		} else if(wheel_steering_data == 0b00000000)
 504:	80 91 03 01 	lds	r24, 0x0103
 508:	81 11       	cpse	r24, r1
 50a:	01 c0       	rjmp	.+2      	; 0x50e <moveRobot+0x7c>
		{
			stop();
 50c:	2f cf       	rjmp	.-418    	; 0x36c <stop>
		} else if(wheel_steering_data == 0b00000101)
 50e:	80 91 03 01 	lds	r24, 0x0103
 512:	85 30       	cpi	r24, 0x05	; 5
 514:	09 f4       	brne	.+2      	; 0x518 <moveRobot+0x86>
		{
			rotateCW();
 516:	b4 cf       	rjmp	.-152    	; 0x480 <rotateCW>
		} else if(wheel_steering_data == 0b00000110)
 518:	80 91 03 01 	lds	r24, 0x0103
 51c:	86 30       	cpi	r24, 0x06	; 6
 51e:	09 f4       	brne	.+2      	; 0x522 <moveRobot+0x90>
		{
			rotateCCW();
 520:	a6 cf       	rjmp	.-180    	; 0x46e <rotateCCW>
 522:	08 95       	ret

00000524 <Arm_Init>:
	
	_delay_ms(3000);
	
	default_Position();
	
}
 524:	8f ef       	ldi	r24, 0xFF	; 255
 526:	91 e0       	ldi	r25, 0x01	; 1
 528:	90 93 0a 01 	sts	0x010A, r25
 52c:	80 93 09 01 	sts	0x0109, r24
 530:	2c ec       	ldi	r18, 0xCC	; 204
 532:	30 e0       	ldi	r19, 0x00	; 0
 534:	30 93 06 01 	sts	0x0106, r19
 538:	20 93 05 01 	sts	0x0105, r18
 53c:	30 93 10 01 	sts	0x0110, r19
 540:	20 93 0f 01 	sts	0x010F, r18
 544:	2e ee       	ldi	r18, 0xEE	; 238
 546:	33 e0       	ldi	r19, 0x03	; 3
 548:	30 93 16 01 	sts	0x0116, r19
 54c:	20 93 15 01 	sts	0x0115, r18
 550:	90 93 14 01 	sts	0x0114, r25
 554:	80 93 13 01 	sts	0x0113, r24
 558:	90 93 18 01 	sts	0x0118, r25
 55c:	80 93 17 01 	sts	0x0117, r24
 560:	53 9a       	sbi	0x0a, 3	; 10
 562:	10 92 c5 00 	sts	0x00C5, r1
 566:	10 92 c4 00 	sts	0x00C4, r1
 56a:	88 e1       	ldi	r24, 0x18	; 24
 56c:	80 93 c1 00 	sts	0x00C1, r24
 570:	86 e0       	ldi	r24, 0x06	; 6
 572:	80 93 c2 00 	sts	0x00C2, r24
 576:	08 95       	ret

00000578 <USART_Transmit>:
 578:	5b 9a       	sbi	0x0b, 3	; 11
 57a:	e0 ec       	ldi	r30, 0xC0	; 192
 57c:	f0 e0       	ldi	r31, 0x00	; 0
 57e:	90 81       	ld	r25, Z
 580:	95 ff       	sbrs	r25, 5
 582:	fd cf       	rjmp	.-6      	; 0x57e <USART_Transmit+0x6>
 584:	80 93 c6 00 	sts	0x00C6, r24
 588:	08 95       	ret

0000058a <move_Single_Servo>:
 58a:	ff 92       	push	r15
 58c:	0f 93       	push	r16
 58e:	1f 93       	push	r17
 590:	cf 93       	push	r28
 592:	df 93       	push	r29
 594:	00 d0       	rcall	.+0      	; 0x596 <move_Single_Servo+0xc>
 596:	cd b7       	in	r28, 0x3d	; 61
 598:	de b7       	in	r29, 0x3e	; 62
 59a:	f6 2e       	mov	r15, r22
 59c:	04 2f       	mov	r16, r20
 59e:	12 2f       	mov	r17, r18
 5a0:	89 83       	std	Y+1, r24	; 0x01
 5a2:	9a 83       	std	Y+2, r25	; 0x02
 5a4:	8f ef       	ldi	r24, 0xFF	; 255
 5a6:	e8 df       	rcall	.-48     	; 0x578 <USART_Transmit>
 5a8:	8f ef       	ldi	r24, 0xFF	; 255
 5aa:	e6 df       	rcall	.-52     	; 0x578 <USART_Transmit>
 5ac:	81 2f       	mov	r24, r17
 5ae:	e4 df       	rcall	.-56     	; 0x578 <USART_Transmit>
 5b0:	87 e0       	ldi	r24, 0x07	; 7
 5b2:	e2 df       	rcall	.-60     	; 0x578 <USART_Transmit>
 5b4:	83 e0       	ldi	r24, 0x03	; 3
 5b6:	e0 df       	rcall	.-64     	; 0x578 <USART_Transmit>
 5b8:	8e e1       	ldi	r24, 0x1E	; 30
 5ba:	de df       	rcall	.-68     	; 0x578 <USART_Transmit>
 5bc:	89 81       	ldd	r24, Y+1	; 0x01
 5be:	dc df       	rcall	.-72     	; 0x578 <USART_Transmit>
 5c0:	8a 81       	ldd	r24, Y+2	; 0x02
 5c2:	da df       	rcall	.-76     	; 0x578 <USART_Transmit>
 5c4:	8f 2d       	mov	r24, r15
 5c6:	d8 df       	rcall	.-80     	; 0x578 <USART_Transmit>
 5c8:	80 2f       	mov	r24, r16
 5ca:	d6 df       	rcall	.-84     	; 0x578 <USART_Transmit>
 5cc:	99 81       	ldd	r25, Y+1	; 0x01
 5ce:	8a 81       	ldd	r24, Y+2	; 0x02
 5d0:	89 0f       	add	r24, r25
 5d2:	88 5d       	subi	r24, 0xD8	; 216
 5d4:	f8 0e       	add	r15, r24
 5d6:	0f 0d       	add	r16, r15
 5d8:	80 2f       	mov	r24, r16
 5da:	81 0f       	add	r24, r17
 5dc:	80 95       	com	r24
 5de:	cc df       	rcall	.-104    	; 0x578 <USART_Transmit>
 5e0:	0f 90       	pop	r0
 5e2:	0f 90       	pop	r0
 5e4:	df 91       	pop	r29
 5e6:	cf 91       	pop	r28
 5e8:	1f 91       	pop	r17
 5ea:	0f 91       	pop	r16
 5ec:	ff 90       	pop	r15
 5ee:	08 95       	ret

000005f0 <move_Double_Servo>:
 5f0:	ef 92       	push	r14
 5f2:	ff 92       	push	r15
 5f4:	0f 93       	push	r16
 5f6:	1f 93       	push	r17
 5f8:	cf 93       	push	r28
 5fa:	df 93       	push	r29
 5fc:	00 d0       	rcall	.+0      	; 0x5fe <move_Double_Servo+0xe>
 5fe:	00 d0       	rcall	.+0      	; 0x600 <move_Double_Servo+0x10>
 600:	00 d0       	rcall	.+0      	; 0x602 <move_Double_Servo+0x12>
 602:	cd b7       	in	r28, 0x3d	; 61
 604:	de b7       	in	r29, 0x3e	; 62
 606:	f6 2e       	mov	r15, r22
 608:	14 2f       	mov	r17, r20
 60a:	e2 2e       	mov	r14, r18
 60c:	af ef       	ldi	r26, 0xFF	; 255
 60e:	b3 e0       	ldi	r27, 0x03	; 3
 610:	a8 1b       	sub	r26, r24
 612:	b9 0b       	sbc	r27, r25
 614:	ba 83       	std	Y+2, r27	; 0x02
 616:	a9 83       	std	Y+1, r26	; 0x01
 618:	8b 83       	std	Y+3, r24	; 0x03
 61a:	9c 83       	std	Y+4, r25	; 0x04
 61c:	e9 81       	ldd	r30, Y+1	; 0x01
 61e:	fa 81       	ldd	r31, Y+2	; 0x02
 620:	ed 83       	std	Y+5, r30	; 0x05
 622:	e9 81       	ldd	r30, Y+1	; 0x01
 624:	fa 81       	ldd	r31, Y+2	; 0x02
 626:	fe 83       	std	Y+6, r31	; 0x06
 628:	8f ef       	ldi	r24, 0xFF	; 255
 62a:	a6 df       	rcall	.-180    	; 0x578 <USART_Transmit>
 62c:	8f ef       	ldi	r24, 0xFF	; 255
 62e:	a4 df       	rcall	.-184    	; 0x578 <USART_Transmit>
 630:	8e ef       	ldi	r24, 0xFE	; 254
 632:	a2 df       	rcall	.-188    	; 0x578 <USART_Transmit>
 634:	8e e0       	ldi	r24, 0x0E	; 14
 636:	a0 df       	rcall	.-192    	; 0x578 <USART_Transmit>
 638:	83 e8       	ldi	r24, 0x83	; 131
 63a:	9e df       	rcall	.-196    	; 0x578 <USART_Transmit>
 63c:	8e e1       	ldi	r24, 0x1E	; 30
 63e:	9c df       	rcall	.-200    	; 0x578 <USART_Transmit>
 640:	84 e0       	ldi	r24, 0x04	; 4
 642:	9a df       	rcall	.-204    	; 0x578 <USART_Transmit>
 644:	8e 2d       	mov	r24, r14
 646:	98 df       	rcall	.-208    	; 0x578 <USART_Transmit>
 648:	8b 81       	ldd	r24, Y+3	; 0x03
 64a:	96 df       	rcall	.-212    	; 0x578 <USART_Transmit>
 64c:	8c 81       	ldd	r24, Y+4	; 0x04
 64e:	94 df       	rcall	.-216    	; 0x578 <USART_Transmit>
 650:	8f 2d       	mov	r24, r15
 652:	92 df       	rcall	.-220    	; 0x578 <USART_Transmit>
 654:	81 2f       	mov	r24, r17
 656:	90 df       	rcall	.-224    	; 0x578 <USART_Transmit>
 658:	80 2f       	mov	r24, r16
 65a:	8e df       	rcall	.-228    	; 0x578 <USART_Transmit>
 65c:	8d 81       	ldd	r24, Y+5	; 0x05
 65e:	8c df       	rcall	.-232    	; 0x578 <USART_Transmit>
 660:	8e 81       	ldd	r24, Y+6	; 0x06
 662:	8a df       	rcall	.-236    	; 0x578 <USART_Transmit>
 664:	8f 2d       	mov	r24, r15
 666:	88 df       	rcall	.-240    	; 0x578 <USART_Transmit>
 668:	81 2f       	mov	r24, r17
 66a:	86 df       	rcall	.-244    	; 0x578 <USART_Transmit>
 66c:	3b 81       	ldd	r19, Y+3	; 0x03
 66e:	8c 81       	ldd	r24, Y+4	; 0x04
 670:	2d 81       	ldd	r18, Y+5	; 0x05
 672:	9e 81       	ldd	r25, Y+6	; 0x06
 674:	83 0f       	add	r24, r19
 676:	8f 54       	subi	r24, 0x4F	; 79
 678:	82 0f       	add	r24, r18
 67a:	89 0f       	add	r24, r25
 67c:	8f 0d       	add	r24, r15
 67e:	f8 0e       	add	r15, r24
 680:	f1 0e       	add	r15, r17
 682:	1f 0d       	add	r17, r15
 684:	e1 0e       	add	r14, r17
 686:	8e 2d       	mov	r24, r14
 688:	80 0f       	add	r24, r16
 68a:	80 95       	com	r24
 68c:	75 df       	rcall	.-278    	; 0x578 <USART_Transmit>
 68e:	26 96       	adiw	r28, 0x06	; 6
 690:	0f b6       	in	r0, 0x3f	; 63
 692:	f8 94       	cli
 694:	de bf       	out	0x3e, r29	; 62
 696:	0f be       	out	0x3f, r0	; 63
 698:	cd bf       	out	0x3d, r28	; 61
 69a:	df 91       	pop	r29
 69c:	cf 91       	pop	r28
 69e:	1f 91       	pop	r17
 6a0:	0f 91       	pop	r16
 6a2:	ff 90       	pop	r15
 6a4:	ef 90       	pop	r14
 6a6:	08 95       	ret

000006a8 <pickup_Default_Position>:
 6a8:	0f 93       	push	r16
 6aa:	1f 93       	push	r17
 6ac:	03 e0       	ldi	r16, 0x03	; 3
 6ae:	10 e0       	ldi	r17, 0x00	; 0
 6b0:	22 e0       	ldi	r18, 0x02	; 2
 6b2:	40 e0       	ldi	r20, 0x00	; 0
 6b4:	60 ef       	ldi	r22, 0xF0	; 240
 6b6:	88 e8       	ldi	r24, 0x88	; 136
 6b8:	92 e0       	ldi	r25, 0x02	; 2
 6ba:	9a df       	rcall	.-204    	; 0x5f0 <move_Double_Servo>
 6bc:	05 e0       	ldi	r16, 0x05	; 5
 6be:	10 e0       	ldi	r17, 0x00	; 0
 6c0:	24 e0       	ldi	r18, 0x04	; 4
 6c2:	40 e0       	ldi	r20, 0x00	; 0
 6c4:	60 ef       	ldi	r22, 0xF0	; 240
 6c6:	88 e8       	ldi	r24, 0x88	; 136
 6c8:	92 e0       	ldi	r25, 0x02	; 2
 6ca:	92 df       	rcall	.-220    	; 0x5f0 <move_Double_Servo>
 6cc:	26 e0       	ldi	r18, 0x06	; 6
 6ce:	40 e0       	ldi	r20, 0x00	; 0
 6d0:	60 ef       	ldi	r22, 0xF0	; 240
 6d2:	8f ef       	ldi	r24, 0xFF	; 255
 6d4:	91 e0       	ldi	r25, 0x01	; 1
 6d6:	59 df       	rcall	.-334    	; 0x58a <move_Single_Servo>
 6d8:	27 e0       	ldi	r18, 0x07	; 7
 6da:	41 e0       	ldi	r20, 0x01	; 1
 6dc:	60 e5       	ldi	r22, 0x50	; 80
 6de:	8f ef       	ldi	r24, 0xFF	; 255
 6e0:	91 e0       	ldi	r25, 0x01	; 1
 6e2:	53 df       	rcall	.-346    	; 0x58a <move_Single_Servo>
 6e4:	28 e0       	ldi	r18, 0x08	; 8
 6e6:	40 e0       	ldi	r20, 0x00	; 0
 6e8:	60 e5       	ldi	r22, 0x50	; 80
 6ea:	8f ef       	ldi	r24, 0xFF	; 255
 6ec:	91 e0       	ldi	r25, 0x01	; 1
 6ee:	4d df       	rcall	.-358    	; 0x58a <move_Single_Servo>
 6f0:	88 e8       	ldi	r24, 0x88	; 136
 6f2:	92 e0       	ldi	r25, 0x02	; 2
 6f4:	90 93 06 01 	sts	0x0106, r25
 6f8:	80 93 05 01 	sts	0x0105, r24
 6fc:	90 93 10 01 	sts	0x0110, r25
 700:	80 93 0f 01 	sts	0x010F, r24
 704:	8f ef       	ldi	r24, 0xFF	; 255
 706:	91 e0       	ldi	r25, 0x01	; 1
 708:	90 93 16 01 	sts	0x0116, r25
 70c:	80 93 15 01 	sts	0x0115, r24
 710:	90 93 14 01 	sts	0x0114, r25
 714:	80 93 13 01 	sts	0x0113, r24
 718:	90 93 18 01 	sts	0x0118, r25
 71c:	80 93 17 01 	sts	0x0117, r24
 720:	1f 91       	pop	r17
 722:	0f 91       	pop	r16
 724:	08 95       	ret

00000726 <move_Arm>:
*
* @param joint	joint to be moved
* @param direction	direction of movement
* @param amp	if movement is amplified or not
*/
void move_Arm(uint8_t armData) {
 726:	0f 93       	push	r16
 728:	1f 93       	push	r17
	
	uint8_t joint = armData & 0x07;
 72a:	98 2f       	mov	r25, r24
 72c:	97 70       	andi	r25, 0x07	; 7
	_Bool direction = (armData >> 4) & 0x01;
 72e:	84 fb       	bst	r24, 4
 730:	33 27       	eor	r19, r19
 732:	30 f9       	bld	r19, 0
	_Bool amp = (armData >> 3) & 0x01;
 734:	83 fb       	bst	r24, 3
 736:	22 27       	eor	r18, r18
 738:	20 f9       	bld	r18, 0
	_Bool DPP = (armData >> 5) & 0x01;
	
	if (DPP)
 73a:	85 ff       	sbrs	r24, 5
 73c:	02 c0       	rjmp	.+4      	; 0x742 <move_Arm+0x1c>
	{
		pickup_Default_Position();
 73e:	b4 df       	rcall	.-152    	; 0x6a8 <pickup_Default_Position>
 740:	3c c1       	rjmp	.+632    	; 0x9ba <move_Arm+0x294>
	}
	else
	{
		
		
		if (joint == 1)
 742:	91 30       	cpi	r25, 0x01	; 1
 744:	91 f5       	brne	.+100    	; 0x7aa <move_Arm+0x84>
		{
			if (direction == 0 && (joint1_Pos - (10+40*amp)) > 0)
 746:	31 11       	cpse	r19, r1
 748:	18 c0       	rjmp	.+48     	; 0x77a <move_Arm+0x54>
 74a:	38 ed       	ldi	r19, 0xD8	; 216
 74c:	32 03       	mulsu	r19, r18
 74e:	c0 01       	movw	r24, r0
 750:	11 24       	eor	r1, r1
 752:	20 91 09 01 	lds	r18, 0x0109
 756:	30 91 0a 01 	lds	r19, 0x010A
 75a:	82 0f       	add	r24, r18
 75c:	93 1f       	adc	r25, r19
 75e:	8a 30       	cpi	r24, 0x0A	; 10
 760:	91 05       	cpc	r25, r1
 762:	09 f4       	brne	.+2      	; 0x766 <move_Arm+0x40>
 764:	2a c1       	rjmp	.+596    	; 0x9ba <move_Arm+0x294>
			{
				joint1_Pos -= (10+40*amp);
 766:	0a 97       	sbiw	r24, 0x0a	; 10
 768:	90 93 0a 01 	sts	0x010A, r25
 76c:	80 93 09 01 	sts	0x0109, r24
				move_Single_Servo(joint1_Pos, 0x50, 0x00, 0x01);
 770:	21 e0       	ldi	r18, 0x01	; 1
 772:	40 e0       	ldi	r20, 0x00	; 0
 774:	60 e5       	ldi	r22, 0x50	; 80
 776:	09 df       	rcall	.-494    	; 0x58a <move_Single_Servo>
 778:	20 c1       	rjmp	.+576    	; 0x9ba <move_Arm+0x294>
			}
			else if(direction == 1 && (joint1_Pos + (10+40*amp)) < 1023)
 77a:	80 91 09 01 	lds	r24, 0x0109
 77e:	90 91 0a 01 	lds	r25, 0x010A
 782:	0a 96       	adiw	r24, 0x0a	; 10
 784:	48 e2       	ldi	r20, 0x28	; 40
 786:	24 9f       	mul	r18, r20
 788:	80 0d       	add	r24, r0
 78a:	91 1d       	adc	r25, r1
 78c:	11 24       	eor	r1, r1
 78e:	8f 3f       	cpi	r24, 0xFF	; 255
 790:	23 e0       	ldi	r18, 0x03	; 3
 792:	92 07       	cpc	r25, r18
 794:	08 f0       	brcs	.+2      	; 0x798 <move_Arm+0x72>
 796:	11 c1       	rjmp	.+546    	; 0x9ba <move_Arm+0x294>
			{
				joint1_Pos += (10+40*amp);
 798:	90 93 0a 01 	sts	0x010A, r25
 79c:	80 93 09 01 	sts	0x0109, r24
				move_Single_Servo(joint1_Pos, 0x50, 0x00, 0x01);
 7a0:	21 e0       	ldi	r18, 0x01	; 1
 7a2:	40 e0       	ldi	r20, 0x00	; 0
 7a4:	60 e5       	ldi	r22, 0x50	; 80
 7a6:	f1 de       	rcall	.-542    	; 0x58a <move_Single_Servo>
 7a8:	08 c1       	rjmp	.+528    	; 0x9ba <move_Arm+0x294>
			}
		}
		else if(joint == 2)
 7aa:	92 30       	cpi	r25, 0x02	; 2
 7ac:	b1 f5       	brne	.+108    	; 0x81a <move_Arm+0xf4>
		{
			if (direction == 0 && (joint2_Pos - (10+40*amp)) > 0xCD)
 7ae:	31 11       	cpse	r19, r1
 7b0:	1a c0       	rjmp	.+52     	; 0x7e6 <move_Arm+0xc0>
 7b2:	80 91 05 01 	lds	r24, 0x0105
 7b6:	90 91 06 01 	lds	r25, 0x0106
 7ba:	0a 97       	sbiw	r24, 0x0a	; 10
 7bc:	48 ed       	ldi	r20, 0xD8	; 216
 7be:	42 03       	mulsu	r20, r18
 7c0:	90 01       	movw	r18, r0
 7c2:	11 24       	eor	r1, r1
 7c4:	82 0f       	add	r24, r18
 7c6:	93 1f       	adc	r25, r19
 7c8:	8e 3c       	cpi	r24, 0xCE	; 206
 7ca:	91 05       	cpc	r25, r1
 7cc:	08 f4       	brcc	.+2      	; 0x7d0 <move_Arm+0xaa>
 7ce:	f5 c0       	rjmp	.+490    	; 0x9ba <move_Arm+0x294>
			{
				joint2_Pos -= (10+40*amp);
 7d0:	90 93 06 01 	sts	0x0106, r25
 7d4:	80 93 05 01 	sts	0x0105, r24
				move_Double_Servo(joint2_Pos, 0x50, 0x00, 0x02, 0x03);
 7d8:	03 e0       	ldi	r16, 0x03	; 3
 7da:	10 e0       	ldi	r17, 0x00	; 0
 7dc:	22 e0       	ldi	r18, 0x02	; 2
 7de:	40 e0       	ldi	r20, 0x00	; 0
 7e0:	60 e5       	ldi	r22, 0x50	; 80
 7e2:	06 df       	rcall	.-500    	; 0x5f0 <move_Double_Servo>
 7e4:	ea c0       	rjmp	.+468    	; 0x9ba <move_Arm+0x294>
			}
			else if(direction == 1 && (joint2_Pos + (10+40*amp)) < 0x322)
 7e6:	80 91 05 01 	lds	r24, 0x0105
 7ea:	90 91 06 01 	lds	r25, 0x0106
 7ee:	0a 96       	adiw	r24, 0x0a	; 10
 7f0:	38 e2       	ldi	r19, 0x28	; 40
 7f2:	23 9f       	mul	r18, r19
 7f4:	80 0d       	add	r24, r0
 7f6:	91 1d       	adc	r25, r1
 7f8:	11 24       	eor	r1, r1
 7fa:	82 32       	cpi	r24, 0x22	; 34
 7fc:	43 e0       	ldi	r20, 0x03	; 3
 7fe:	94 07       	cpc	r25, r20
 800:	08 f0       	brcs	.+2      	; 0x804 <move_Arm+0xde>
 802:	db c0       	rjmp	.+438    	; 0x9ba <move_Arm+0x294>
			{
				joint2_Pos += (10+40*amp);
 804:	90 93 06 01 	sts	0x0106, r25
 808:	80 93 05 01 	sts	0x0105, r24
				move_Double_Servo(joint2_Pos, 0x50, 0x00, 0x02, 0x03);
 80c:	03 e0       	ldi	r16, 0x03	; 3
 80e:	10 e0       	ldi	r17, 0x00	; 0
 810:	22 e0       	ldi	r18, 0x02	; 2
 812:	40 e0       	ldi	r20, 0x00	; 0
 814:	60 e5       	ldi	r22, 0x50	; 80
 816:	ec de       	rcall	.-552    	; 0x5f0 <move_Double_Servo>
 818:	d0 c0       	rjmp	.+416    	; 0x9ba <move_Arm+0x294>
			}
		}
		else if(joint == 3)
 81a:	93 30       	cpi	r25, 0x03	; 3
 81c:	b1 f5       	brne	.+108    	; 0x88a <move_Arm+0x164>
		{
			if (direction == 0 && (joint3_Pos - (10+40*amp)) > 0xCD)
 81e:	31 11       	cpse	r19, r1
 820:	1a c0       	rjmp	.+52     	; 0x856 <move_Arm+0x130>
 822:	80 91 0f 01 	lds	r24, 0x010F
 826:	90 91 10 01 	lds	r25, 0x0110
 82a:	0a 97       	sbiw	r24, 0x0a	; 10
 82c:	48 ed       	ldi	r20, 0xD8	; 216
 82e:	42 03       	mulsu	r20, r18
 830:	90 01       	movw	r18, r0
 832:	11 24       	eor	r1, r1
 834:	82 0f       	add	r24, r18
 836:	93 1f       	adc	r25, r19
 838:	8e 3c       	cpi	r24, 0xCE	; 206
 83a:	91 05       	cpc	r25, r1
 83c:	08 f4       	brcc	.+2      	; 0x840 <move_Arm+0x11a>
 83e:	bd c0       	rjmp	.+378    	; 0x9ba <move_Arm+0x294>
			{
				joint3_Pos -= (10+40*amp);
 840:	90 93 10 01 	sts	0x0110, r25
 844:	80 93 0f 01 	sts	0x010F, r24
				move_Double_Servo(joint3_Pos, 0x50, 0x00, 0x04, 0x05);
 848:	05 e0       	ldi	r16, 0x05	; 5
 84a:	10 e0       	ldi	r17, 0x00	; 0
 84c:	24 e0       	ldi	r18, 0x04	; 4
 84e:	40 e0       	ldi	r20, 0x00	; 0
 850:	60 e5       	ldi	r22, 0x50	; 80
 852:	ce de       	rcall	.-612    	; 0x5f0 <move_Double_Servo>
 854:	b2 c0       	rjmp	.+356    	; 0x9ba <move_Arm+0x294>
			}
			else if(direction == 1 && (joint3_Pos + (10+40*amp)) < 0x322)
 856:	80 91 0f 01 	lds	r24, 0x010F
 85a:	90 91 10 01 	lds	r25, 0x0110
 85e:	0a 96       	adiw	r24, 0x0a	; 10
 860:	38 e2       	ldi	r19, 0x28	; 40
 862:	23 9f       	mul	r18, r19
 864:	80 0d       	add	r24, r0
 866:	91 1d       	adc	r25, r1
 868:	11 24       	eor	r1, r1
 86a:	82 32       	cpi	r24, 0x22	; 34
 86c:	43 e0       	ldi	r20, 0x03	; 3
 86e:	94 07       	cpc	r25, r20
 870:	08 f0       	brcs	.+2      	; 0x874 <move_Arm+0x14e>
 872:	a3 c0       	rjmp	.+326    	; 0x9ba <move_Arm+0x294>
			{
				joint3_Pos += (10+40*amp);
 874:	90 93 10 01 	sts	0x0110, r25
 878:	80 93 0f 01 	sts	0x010F, r24
				move_Double_Servo(joint3_Pos, 0x50, 0x00, 0x04, 0x05);
 87c:	05 e0       	ldi	r16, 0x05	; 5
 87e:	10 e0       	ldi	r17, 0x00	; 0
 880:	24 e0       	ldi	r18, 0x04	; 4
 882:	40 e0       	ldi	r20, 0x00	; 0
 884:	60 e5       	ldi	r22, 0x50	; 80
 886:	b4 de       	rcall	.-664    	; 0x5f0 <move_Double_Servo>
 888:	98 c0       	rjmp	.+304    	; 0x9ba <move_Arm+0x294>
			}
		}
		else if (joint == 4)
 88a:	94 30       	cpi	r25, 0x04	; 4
 88c:	91 f5       	brne	.+100    	; 0x8f2 <move_Arm+0x1cc>
		{
			if (direction == 0 && (joint4_Pos - (10+40*amp)) > 0) //kolla gränserna
 88e:	31 11       	cpse	r19, r1
 890:	18 c0       	rjmp	.+48     	; 0x8c2 <move_Arm+0x19c>
 892:	38 ed       	ldi	r19, 0xD8	; 216
 894:	32 03       	mulsu	r19, r18
 896:	c0 01       	movw	r24, r0
 898:	11 24       	eor	r1, r1
 89a:	40 91 15 01 	lds	r20, 0x0115
 89e:	50 91 16 01 	lds	r21, 0x0116
 8a2:	84 0f       	add	r24, r20
 8a4:	95 1f       	adc	r25, r21
 8a6:	8a 30       	cpi	r24, 0x0A	; 10
 8a8:	91 05       	cpc	r25, r1
 8aa:	09 f4       	brne	.+2      	; 0x8ae <move_Arm+0x188>
 8ac:	86 c0       	rjmp	.+268    	; 0x9ba <move_Arm+0x294>
			{
				joint4_Pos -= (10+40*amp);
 8ae:	0a 97       	sbiw	r24, 0x0a	; 10
 8b0:	90 93 16 01 	sts	0x0116, r25
 8b4:	80 93 15 01 	sts	0x0115, r24
				move_Single_Servo(joint4_Pos, 0x50, 0x00, 0x06);
 8b8:	26 e0       	ldi	r18, 0x06	; 6
 8ba:	40 e0       	ldi	r20, 0x00	; 0
 8bc:	60 e5       	ldi	r22, 0x50	; 80
 8be:	65 de       	rcall	.-822    	; 0x58a <move_Single_Servo>
 8c0:	7c c0       	rjmp	.+248    	; 0x9ba <move_Arm+0x294>
			}
			else if(direction == 1 && (joint4_Pos + (10+40*amp)) < 1023) //kolla gränserna
 8c2:	80 91 15 01 	lds	r24, 0x0115
 8c6:	90 91 16 01 	lds	r25, 0x0116
 8ca:	0a 96       	adiw	r24, 0x0a	; 10
 8cc:	48 e2       	ldi	r20, 0x28	; 40
 8ce:	24 9f       	mul	r18, r20
 8d0:	80 0d       	add	r24, r0
 8d2:	91 1d       	adc	r25, r1
 8d4:	11 24       	eor	r1, r1
 8d6:	8f 3f       	cpi	r24, 0xFF	; 255
 8d8:	23 e0       	ldi	r18, 0x03	; 3
 8da:	92 07       	cpc	r25, r18
 8dc:	08 f0       	brcs	.+2      	; 0x8e0 <move_Arm+0x1ba>
 8de:	6d c0       	rjmp	.+218    	; 0x9ba <move_Arm+0x294>
			{
				joint4_Pos += (10+40*amp);
 8e0:	90 93 16 01 	sts	0x0116, r25
 8e4:	80 93 15 01 	sts	0x0115, r24
				move_Single_Servo(joint4_Pos, 0x50, 0x00, 0x06);
 8e8:	26 e0       	ldi	r18, 0x06	; 6
 8ea:	40 e0       	ldi	r20, 0x00	; 0
 8ec:	60 e5       	ldi	r22, 0x50	; 80
 8ee:	4d de       	rcall	.-870    	; 0x58a <move_Single_Servo>
 8f0:	64 c0       	rjmp	.+200    	; 0x9ba <move_Arm+0x294>
			}
		}
		else if (joint == 5)
 8f2:	95 30       	cpi	r25, 0x05	; 5
 8f4:	89 f5       	brne	.+98     	; 0x958 <move_Arm+0x232>
		{
			if (direction == 0 && (joint5_Pos - (10+40*amp)) > 0)
 8f6:	31 11       	cpse	r19, r1
 8f8:	18 c0       	rjmp	.+48     	; 0x92a <move_Arm+0x204>
 8fa:	38 ed       	ldi	r19, 0xD8	; 216
 8fc:	32 03       	mulsu	r19, r18
 8fe:	c0 01       	movw	r24, r0
 900:	11 24       	eor	r1, r1
 902:	40 91 13 01 	lds	r20, 0x0113
 906:	50 91 14 01 	lds	r21, 0x0114
 90a:	84 0f       	add	r24, r20
 90c:	95 1f       	adc	r25, r21
 90e:	8a 30       	cpi	r24, 0x0A	; 10
 910:	91 05       	cpc	r25, r1
 912:	09 f4       	brne	.+2      	; 0x916 <move_Arm+0x1f0>
 914:	52 c0       	rjmp	.+164    	; 0x9ba <move_Arm+0x294>
			{
				joint5_Pos -= (10+40*amp);
 916:	0a 97       	sbiw	r24, 0x0a	; 10
 918:	90 93 14 01 	sts	0x0114, r25
 91c:	80 93 13 01 	sts	0x0113, r24
				move_Single_Servo(joint5_Pos, 0x50, 0x00, 0x07);
 920:	27 e0       	ldi	r18, 0x07	; 7
 922:	40 e0       	ldi	r20, 0x00	; 0
 924:	60 e5       	ldi	r22, 0x50	; 80
 926:	31 de       	rcall	.-926    	; 0x58a <move_Single_Servo>
 928:	48 c0       	rjmp	.+144    	; 0x9ba <move_Arm+0x294>
			}
			else if(direction == 1 && (joint5_Pos + (10+40*amp)) < 1023)
 92a:	80 91 13 01 	lds	r24, 0x0113
 92e:	90 91 14 01 	lds	r25, 0x0114
 932:	0a 96       	adiw	r24, 0x0a	; 10
 934:	48 e2       	ldi	r20, 0x28	; 40
 936:	24 9f       	mul	r18, r20
 938:	80 0d       	add	r24, r0
 93a:	91 1d       	adc	r25, r1
 93c:	11 24       	eor	r1, r1
 93e:	8f 3f       	cpi	r24, 0xFF	; 255
 940:	23 e0       	ldi	r18, 0x03	; 3
 942:	92 07       	cpc	r25, r18
 944:	d0 f5       	brcc	.+116    	; 0x9ba <move_Arm+0x294>
			{
				joint5_Pos += (10+40*amp);
 946:	90 93 14 01 	sts	0x0114, r25
 94a:	80 93 13 01 	sts	0x0113, r24
				move_Single_Servo(joint5_Pos, 0x50, 0x00, 0x07);
 94e:	27 e0       	ldi	r18, 0x07	; 7
 950:	40 e0       	ldi	r20, 0x00	; 0
 952:	60 e5       	ldi	r22, 0x50	; 80
 954:	1a de       	rcall	.-972    	; 0x58a <move_Single_Servo>
 956:	31 c0       	rjmp	.+98     	; 0x9ba <move_Arm+0x294>
			}
		}
		else if (joint == 6)
 958:	96 30       	cpi	r25, 0x06	; 6
 95a:	79 f5       	brne	.+94     	; 0x9ba <move_Arm+0x294>
		{
			if (direction == 0 && (joint6_Pos - (10+40*amp)) > 0) //kolla gränserna
 95c:	31 11       	cpse	r19, r1
 95e:	17 c0       	rjmp	.+46     	; 0x98e <move_Arm+0x268>
 960:	38 ed       	ldi	r19, 0xD8	; 216
 962:	32 03       	mulsu	r19, r18
 964:	c0 01       	movw	r24, r0
 966:	11 24       	eor	r1, r1
 968:	40 91 17 01 	lds	r20, 0x0117
 96c:	50 91 18 01 	lds	r21, 0x0118
 970:	84 0f       	add	r24, r20
 972:	95 1f       	adc	r25, r21
 974:	8a 30       	cpi	r24, 0x0A	; 10
 976:	91 05       	cpc	r25, r1
 978:	01 f1       	breq	.+64     	; 0x9ba <move_Arm+0x294>
			{
				joint6_Pos -= (10+40*amp);
 97a:	0a 97       	sbiw	r24, 0x0a	; 10
 97c:	90 93 18 01 	sts	0x0118, r25
 980:	80 93 17 01 	sts	0x0117, r24
				move_Single_Servo(joint6_Pos, 0x50, 0x00, 0x08);
 984:	28 e0       	ldi	r18, 0x08	; 8
 986:	40 e0       	ldi	r20, 0x00	; 0
 988:	60 e5       	ldi	r22, 0x50	; 80
 98a:	ff dd       	rcall	.-1026   	; 0x58a <move_Single_Servo>
 98c:	16 c0       	rjmp	.+44     	; 0x9ba <move_Arm+0x294>
			}
			else if(direction == 1 && (joint6_Pos + (10+40*amp)) < 1023) //kolla gränserna
 98e:	80 91 17 01 	lds	r24, 0x0117
 992:	90 91 18 01 	lds	r25, 0x0118
 996:	0a 96       	adiw	r24, 0x0a	; 10
 998:	48 e2       	ldi	r20, 0x28	; 40
 99a:	24 9f       	mul	r18, r20
 99c:	80 0d       	add	r24, r0
 99e:	91 1d       	adc	r25, r1
 9a0:	11 24       	eor	r1, r1
 9a2:	8f 3f       	cpi	r24, 0xFF	; 255
 9a4:	23 e0       	ldi	r18, 0x03	; 3
 9a6:	92 07       	cpc	r25, r18
 9a8:	40 f4       	brcc	.+16     	; 0x9ba <move_Arm+0x294>
			{
				joint6_Pos += (10+40*amp);
 9aa:	90 93 18 01 	sts	0x0118, r25
 9ae:	80 93 17 01 	sts	0x0117, r24
				move_Single_Servo(joint6_Pos, 0x50, 0x00, 0x08);
 9b2:	28 e0       	ldi	r18, 0x08	; 8
 9b4:	40 e0       	ldi	r20, 0x00	; 0
 9b6:	60 e5       	ldi	r22, 0x50	; 80
 9b8:	e8 dd       	rcall	.-1072   	; 0x58a <move_Single_Servo>
			}
		}
	}
 9ba:	1f 91       	pop	r17
 9bc:	0f 91       	pop	r16
 9be:	08 95       	ret

000009c0 <SPI_Init_Slave>:
#include <stdbool.h>
#include "Slave_control.h"

void SPI_Init_Slave()
{
	waiting_for_instruction = 1;
 9c0:	81 e0       	ldi	r24, 0x01	; 1
 9c2:	80 93 0e 01 	sts	0x010E, r24
	DDRB = 0x48;	
 9c6:	88 e4       	ldi	r24, 0x48	; 72
 9c8:	84 b9       	out	0x04, r24	; 4
	SPCR = 0xC3;		
 9ca:	83 ec       	ldi	r24, 0xC3	; 195
 9cc:	8c bd       	out	0x2c, r24	; 44
	sei(); 
 9ce:	78 94       	sei
 9d0:	08 95       	ret

000009d2 <_exit>:
 9d2:	f8 94       	cli

000009d4 <__stop_program>:
 9d4:	ff cf       	rjmp	.-2      	; 0x9d4 <__stop_program>
