
Communication_Module.elf:     file format elf32-avr

Sections:
Idx Name          Size      VMA       LMA       File off  Algn
  0 .data         000000de  00800100  0000134c  000013e0  2**0
                  CONTENTS, ALLOC, LOAD, DATA
  1 .text         0000134c  00000000  00000000  00000094  2**1
                  CONTENTS, ALLOC, LOAD, READONLY, CODE
  2 .bss          00000048  008001de  008001de  000014be  2**0
                  ALLOC
  3 .stab         000006cc  00000000  00000000  000014c0  2**2
                  CONTENTS, READONLY, DEBUGGING
  4 .stabstr      00000097  00000000  00000000  00001b8c  2**0
                  CONTENTS, READONLY, DEBUGGING
  5 .comment      0000002f  00000000  00000000  00001c23  2**0
                  CONTENTS, READONLY
  6 .debug_aranges 00000228  00000000  00000000  00001c52  2**0
                  CONTENTS, READONLY, DEBUGGING
  7 .debug_info   0000318d  00000000  00000000  00001e7a  2**0
                  CONTENTS, READONLY, DEBUGGING
  8 .debug_abbrev 0000084f  00000000  00000000  00005007  2**0
                  CONTENTS, READONLY, DEBUGGING
  9 .debug_line   00001696  00000000  00000000  00005856  2**0
                  CONTENTS, READONLY, DEBUGGING
 10 .debug_frame  00000708  00000000  00000000  00006eec  2**2
                  CONTENTS, READONLY, DEBUGGING
 11 .debug_str    0000078b  00000000  00000000  000075f4  2**0
                  CONTENTS, READONLY, DEBUGGING
 12 .debug_loc    00001ee9  00000000  00000000  00007d7f  2**0
                  CONTENTS, READONLY, DEBUGGING
 13 .debug_ranges 000001d8  00000000  00000000  00009c68  2**0
                  CONTENTS, READONLY, DEBUGGING

Disassembly of section .text:

00000000 <__vectors>:
       0:	45 c0       	rjmp	.+138    	; 0x8c <__ctors_end>
       2:	00 00       	nop
       4:	61 c0       	rjmp	.+194    	; 0xc8 <__bad_interrupt>
       6:	00 00       	nop
       8:	b5 c0       	rjmp	.+362    	; 0x174 <__vector_2>
       a:	00 00       	nop
       c:	2c c1       	rjmp	.+600    	; 0x266 <__vector_3>
       e:	00 00       	nop
      10:	5b c0       	rjmp	.+182    	; 0xc8 <__bad_interrupt>
      12:	00 00       	nop
      14:	59 c0       	rjmp	.+178    	; 0xc8 <__bad_interrupt>
      16:	00 00       	nop
      18:	57 c0       	rjmp	.+174    	; 0xc8 <__bad_interrupt>
      1a:	00 00       	nop
      1c:	2c c2       	rjmp	.+1112   	; 0x476 <__vector_7>
      1e:	00 00       	nop
      20:	53 c0       	rjmp	.+166    	; 0xc8 <__bad_interrupt>
      22:	00 00       	nop
      24:	51 c0       	rjmp	.+162    	; 0xc8 <__bad_interrupt>
      26:	00 00       	nop
      28:	4f c0       	rjmp	.+158    	; 0xc8 <__bad_interrupt>
      2a:	00 00       	nop
      2c:	4d c0       	rjmp	.+154    	; 0xc8 <__bad_interrupt>
      2e:	00 00       	nop
      30:	4b c0       	rjmp	.+150    	; 0xc8 <__bad_interrupt>
      32:	00 00       	nop
      34:	49 c0       	rjmp	.+146    	; 0xc8 <__bad_interrupt>
      36:	00 00       	nop
      38:	47 c0       	rjmp	.+142    	; 0xc8 <__bad_interrupt>
      3a:	00 00       	nop
      3c:	45 c0       	rjmp	.+138    	; 0xc8 <__bad_interrupt>
      3e:	00 00       	nop
      40:	3e c1       	rjmp	.+636    	; 0x2be <__vector_16>
      42:	00 00       	nop
      44:	67 c1       	rjmp	.+718    	; 0x314 <__vector_17>
      46:	00 00       	nop
      48:	3f c0       	rjmp	.+126    	; 0xc8 <__bad_interrupt>
      4a:	00 00       	nop
      4c:	3d c0       	rjmp	.+122    	; 0xc8 <__bad_interrupt>
      4e:	00 00       	nop
      50:	39 c2       	rjmp	.+1138   	; 0x4c4 <__vector_20>
      52:	00 00       	nop
      54:	39 c0       	rjmp	.+114    	; 0xc8 <__bad_interrupt>
      56:	00 00       	nop
      58:	37 c0       	rjmp	.+110    	; 0xc8 <__bad_interrupt>
      5a:	00 00       	nop
      5c:	35 c0       	rjmp	.+106    	; 0xc8 <__bad_interrupt>
      5e:	00 00       	nop
      60:	33 c0       	rjmp	.+102    	; 0xc8 <__bad_interrupt>
      62:	00 00       	nop
      64:	31 c0       	rjmp	.+98     	; 0xc8 <__bad_interrupt>
      66:	00 00       	nop
      68:	2f c0       	rjmp	.+94     	; 0xc8 <__bad_interrupt>
      6a:	00 00       	nop
      6c:	2d c0       	rjmp	.+90     	; 0xc8 <__bad_interrupt>
      6e:	00 00       	nop
      70:	80 c1       	rjmp	.+768    	; 0x372 <__vector_28>
      72:	00 00       	nop
      74:	29 c0       	rjmp	.+82     	; 0xc8 <__bad_interrupt>
      76:	00 00       	nop
      78:	27 c0       	rjmp	.+78     	; 0xc8 <__bad_interrupt>
      7a:	00 00       	nop
      7c:	25 c0       	rjmp	.+74     	; 0xc8 <__bad_interrupt>
      7e:	00 00       	nop
      80:	23 c0       	rjmp	.+70     	; 0xc8 <__bad_interrupt>
      82:	00 00       	nop
      84:	21 c0       	rjmp	.+66     	; 0xc8 <__bad_interrupt>
      86:	00 00       	nop
      88:	1f c0       	rjmp	.+62     	; 0xc8 <__bad_interrupt>
	...

0000008c <__ctors_end>:
      8c:	11 24       	eor	r1, r1
      8e:	1f be       	out	0x3f, r1	; 63
      90:	cf ef       	ldi	r28, 0xFF	; 255
      92:	d0 e4       	ldi	r29, 0x40	; 64
      94:	de bf       	out	0x3e, r29	; 62
      96:	cd bf       	out	0x3d, r28	; 61

00000098 <__do_copy_data>:
      98:	11 e0       	ldi	r17, 0x01	; 1
      9a:	a0 e0       	ldi	r26, 0x00	; 0
      9c:	b1 e0       	ldi	r27, 0x01	; 1
      9e:	ec e4       	ldi	r30, 0x4C	; 76
      a0:	f3 e1       	ldi	r31, 0x13	; 19
      a2:	00 e0       	ldi	r16, 0x00	; 0
      a4:	0b bf       	out	0x3b, r16	; 59
      a6:	02 c0       	rjmp	.+4      	; 0xac <__do_copy_data+0x14>
      a8:	07 90       	elpm	r0, Z+
      aa:	0d 92       	st	X+, r0
      ac:	ae 3d       	cpi	r26, 0xDE	; 222
      ae:	b1 07       	cpc	r27, r17
      b0:	d9 f7       	brne	.-10     	; 0xa8 <__do_copy_data+0x10>

000000b2 <__do_clear_bss>:
      b2:	22 e0       	ldi	r18, 0x02	; 2
      b4:	ae ed       	ldi	r26, 0xDE	; 222
      b6:	b1 e0       	ldi	r27, 0x01	; 1
      b8:	01 c0       	rjmp	.+2      	; 0xbc <.do_clear_bss_start>

000000ba <.do_clear_bss_loop>:
      ba:	1d 92       	st	X+, r1

000000bc <.do_clear_bss_start>:
      bc:	a6 32       	cpi	r26, 0x26	; 38
      be:	b2 07       	cpc	r27, r18
      c0:	e1 f7       	brne	.-8      	; 0xba <.do_clear_bss_loop>
      c2:	a6 d1       	rcall	.+844    	; 0x410 <main>
      c4:	0c 94 a4 09 	jmp	0x1348	; 0x1348 <_exit>

000000c8 <__bad_interrupt>:
      c8:	9b cf       	rjmp	.-202    	; 0x0 <__vectors>

000000ca <handleData>:
#include "Master_communication.h"


void handleData(uint8_t temp)
{
	switch(temp) {
      ca:	82 30       	cpi	r24, 0x02	; 2
      cc:	49 f0       	breq	.+18     	; 0xe0 <handleData+0x16>
      ce:	83 30       	cpi	r24, 0x03	; 3
      d0:	59 f0       	breq	.+22     	; 0xe8 <handleData+0x1e>
      d2:	81 30       	cpi	r24, 0x01	; 1
      d4:	71 f4       	brne	.+28     	; 0xf2 <handleData+0x28>
		case 0x01: //START PICKUP button pressed
		pickUpItem = 1;
      d6:	80 93 f2 01 	sts	0x01F2, r24
		waitingForStartAbort = 1;
      da:	80 93 f9 01 	sts	0x01F9, r24
		break;
      de:	08 95       	ret
		case 0x02: //END PICKUP button pressed
		waitingForEndPickup = 1;
      e0:	81 e0       	ldi	r24, 0x01	; 1
      e2:	80 93 21 02 	sts	0x0221, r24
		break;
      e6:	08 95       	ret
		case 0x03: //ABORT PICKUP button pressed
		pickUpItem = 0;
      e8:	10 92 f2 01 	sts	0x01F2, r1
		waitingForStartAbort = 1;
      ec:	81 e0       	ldi	r24, 0x01	; 1
      ee:	80 93 f9 01 	sts	0x01F9, r24
      f2:	08 95       	ret

000000f4 <bluetoothTX>:
}

void bluetoothTX(uint8_t txdata) {
	
	/* Wait for empty transmit buffer */
	while ( !( UCSR0A & (1<<UDRE0)) );
      f4:	e0 ec       	ldi	r30, 0xC0	; 192
      f6:	f0 e0       	ldi	r31, 0x00	; 0
      f8:	90 81       	ld	r25, Z
      fa:	95 ff       	sbrs	r25, 5
      fc:	fd cf       	rjmp	.-6      	; 0xf8 <bluetoothTX+0x4>
	
	/* Put data into buffer, sends the data */
	UDR0 = txdata;
      fe:	80 93 c6 00 	sts	0x00C6, r24
     102:	08 95       	ret

00000104 <setupBluetoothRXTX>:
}

void setupBluetoothRXTX()
{
	waiting_for_instruction = 1;
     104:	81 e0       	ldi	r24, 0x01	; 1
     106:	80 93 1e 02 	sts	0x021E, r24
	UCSR0B = (1<<RXEN0) | (1<<TXEN0) | (1 << RXCIE0); //Enable RX0, TX0 and RX complete interrupt
     10a:	88 e9       	ldi	r24, 0x98	; 152
     10c:	80 93 c1 00 	sts	0x00C1, r24
	UCSR0C = (1 << UCSZ01) | (1 << UCSZ00); //set data length to 8-bit;
     110:	86 e0       	ldi	r24, 0x06	; 6
     112:	80 93 c2 00 	sts	0x00C2, r24
	UBRR0H = 0x00;
     116:	10 92 c5 00 	sts	0x00C5, r1
	UBRR0L = 0x07; //Sets baudvalue in AVR to 7, which gives baude rate 115200. baudvalue = (Fcpu/baudrate*16)-1	
     11a:	87 e0       	ldi	r24, 0x07	; 7
     11c:	80 93 c4 00 	sts	0x00C4, r24
     120:	08 95       	ret

00000122 <TXbluetoothInstr>:
}

void TXbluetoothInstr(uint8_t instr, uint8_t data)
{
     122:	cf 93       	push	r28
     124:	c6 2f       	mov	r28, r22
	switch(instr) {
     126:	89 30       	cpi	r24, 0x09	; 9
     128:	a9 f0       	breq	.+42     	; 0x154 <TXbluetoothInstr+0x32>
     12a:	28 f4       	brcc	.+10     	; 0x136 <TXbluetoothInstr+0x14>
     12c:	87 30       	cpi	r24, 0x07	; 7
     12e:	41 f0       	breq	.+16     	; 0x140 <TXbluetoothInstr+0x1e>
     130:	88 30       	cpi	r24, 0x08	; 8
     132:	f1 f4       	brne	.+60     	; 0x170 <TXbluetoothInstr+0x4e>
     134:	0a c0       	rjmp	.+20     	; 0x14a <TXbluetoothInstr+0x28>
     136:	8a 30       	cpi	r24, 0x0A	; 10
     138:	91 f0       	breq	.+36     	; 0x15e <TXbluetoothInstr+0x3c>
     13a:	8b 30       	cpi	r24, 0x0B	; 11
     13c:	c9 f4       	brne	.+50     	; 0x170 <TXbluetoothInstr+0x4e>
     13e:	14 c0       	rjmp	.+40     	; 0x168 <TXbluetoothInstr+0x46>
		case SENSINSTR:
		bluetoothTX(0b00000001);
     140:	81 e0       	ldi	r24, 0x01	; 1
     142:	d8 df       	rcall	.-80     	; 0xf4 <bluetoothTX>
		bluetoothTX(data);
     144:	8c 2f       	mov	r24, r28
     146:	d6 df       	rcall	.-84     	; 0xf4 <bluetoothTX>
		break;
     148:	13 c0       	rjmp	.+38     	; 0x170 <TXbluetoothInstr+0x4e>
		case MODEINSTR:
		bluetoothTX(0b00000010);
     14a:	82 e0       	ldi	r24, 0x02	; 2
     14c:	d3 df       	rcall	.-90     	; 0xf4 <bluetoothTX>
		bluetoothTX(data);
     14e:	8c 2f       	mov	r24, r28
     150:	d1 df       	rcall	.-94     	; 0xf4 <bluetoothTX>
		break;
     152:	0e c0       	rjmp	.+28     	; 0x170 <TXbluetoothInstr+0x4e>
		case STATIONINSTR:
		bluetoothTX(0b00000011);
     154:	83 e0       	ldi	r24, 0x03	; 3
     156:	ce df       	rcall	.-100    	; 0xf4 <bluetoothTX>
		bluetoothTX(data);
     158:	8c 2f       	mov	r24, r28
     15a:	cc df       	rcall	.-104    	; 0xf4 <bluetoothTX>
		break;
     15c:	09 c0       	rjmp	.+18     	; 0x170 <TXbluetoothInstr+0x4e>
		case HISTORYINSTR:
		bluetoothTX(0b00000100);
     15e:	84 e0       	ldi	r24, 0x04	; 4
     160:	c9 df       	rcall	.-110    	; 0xf4 <bluetoothTX>
		bluetoothTX(data);
     162:	8c 2f       	mov	r24, r28
     164:	c7 df       	rcall	.-114    	; 0xf4 <bluetoothTX>
		break;
     166:	04 c0       	rjmp	.+8      	; 0x170 <TXbluetoothInstr+0x4e>
		case CARGOINSTR:
		bluetoothTX(0b00000101);
     168:	85 e0       	ldi	r24, 0x05	; 5
     16a:	c4 df       	rcall	.-120    	; 0xf4 <bluetoothTX>
		bluetoothTX(data);
     16c:	8c 2f       	mov	r24, r28
     16e:	c2 df       	rcall	.-124    	; 0xf4 <bluetoothTX>
		break;
	}
     170:	cf 91       	pop	r28
     172:	08 95       	ret

00000174 <__vector_2>:
#include "Bluetooth.h"
#include "warehouseMode.h"
#include "hd44780_low.h"

ISR(INT1_vect)			//Receive function. Data is transmitted from the sensor slave
{
     174:	1f 92       	push	r1
     176:	0f 92       	push	r0
     178:	0f b6       	in	r0, 0x3f	; 63
     17a:	0f 92       	push	r0
     17c:	11 24       	eor	r1, r1
     17e:	0b b6       	in	r0, 0x3b	; 59
     180:	0f 92       	push	r0
     182:	2f 93       	push	r18
     184:	3f 93       	push	r19
     186:	4f 93       	push	r20
     188:	5f 93       	push	r21
     18a:	6f 93       	push	r22
     18c:	7f 93       	push	r23
     18e:	8f 93       	push	r24
     190:	9f 93       	push	r25
     192:	af 93       	push	r26
     194:	bf 93       	push	r27
     196:	ef 93       	push	r30
     198:	ff 93       	push	r31
	slaveSelect(SENSORSLAVE);	//slave select
     19a:	89 e0       	ldi	r24, 0x09	; 9
     19c:	11 d6       	rcall	.+3106   	; 0xdc0 <slaveSelect>
	sensorData = masterRX(0x01); //sending dummy
     19e:	81 e0       	ldi	r24, 0x01	; 1
     1a0:	ff d5       	rcall	.+3070   	; 0xda0 <masterRX>
     1a2:	80 93 f6 01 	sts	0x01F6, r24
	
	if(sensorData == 0b00001111 || sensorData == 0b00011111)
     1a6:	80 91 f6 01 	lds	r24, 0x01F6
     1aa:	8f 30       	cpi	r24, 0x0F	; 15
     1ac:	21 f0       	breq	.+8      	; 0x1b6 <__vector_2+0x42>
     1ae:	80 91 f6 01 	lds	r24, 0x01F6
     1b2:	8f 31       	cpi	r24, 0x1F	; 31
     1b4:	69 f4       	brne	.+26     	; 0x1d0 <__vector_2+0x5c>
	{
		stationLeftSensCounter++;
     1b6:	80 91 ec 01 	lds	r24, 0x01EC
     1ba:	8f 5f       	subi	r24, 0xFF	; 255
     1bc:	80 93 ec 01 	sts	0x01EC, r24
		if (stationLeftSensCounter == 10)
     1c0:	80 91 ec 01 	lds	r24, 0x01EC
     1c4:	8a 30       	cpi	r24, 0x0A	; 10
     1c6:	e1 f5       	brne	.+120    	; 0x240 <__vector_2+0xcc>
		{
			stationRightSide = 1;
     1c8:	81 e0       	ldi	r24, 0x01	; 1
     1ca:	80 93 f8 01 	sts	0x01F8, r24
     1ce:	38 c0       	rjmp	.+112    	; 0x240 <__vector_2+0xcc>
		}
	}	else if(sensorData == 0b01111000 || sensorData == 0b01111100)
     1d0:	80 91 f6 01 	lds	r24, 0x01F6
     1d4:	88 37       	cpi	r24, 0x78	; 120
     1d6:	21 f0       	breq	.+8      	; 0x1e0 <__vector_2+0x6c>
     1d8:	80 91 f6 01 	lds	r24, 0x01F6
     1dc:	8c 37       	cpi	r24, 0x7C	; 124
     1de:	61 f4       	brne	.+24     	; 0x1f8 <__vector_2+0x84>
	{
		stationRightSensCounter++;
     1e0:	80 91 f0 01 	lds	r24, 0x01F0
     1e4:	8f 5f       	subi	r24, 0xFF	; 255
     1e6:	80 93 f0 01 	sts	0x01F0, r24
		if(stationRightSensCounter == 10)
     1ea:	80 91 f0 01 	lds	r24, 0x01F0
     1ee:	8a 30       	cpi	r24, 0x0A	; 10
     1f0:	39 f5       	brne	.+78     	; 0x240 <__vector_2+0xcc>
		{
			stationRightSide = 0;
     1f2:	10 92 f8 01 	sts	0x01F8, r1
     1f6:	24 c0       	rjmp	.+72     	; 0x240 <__vector_2+0xcc>
		}
	} else
	{
		if(stationLeftSensCounter >= 10 || stationRightSensCounter >= 10)
     1f8:	80 91 ec 01 	lds	r24, 0x01EC
     1fc:	8a 30       	cpi	r24, 0x0A	; 10
     1fe:	20 f4       	brcc	.+8      	; 0x208 <__vector_2+0x94>
     200:	80 91 f0 01 	lds	r24, 0x01F0
     204:	8a 30       	cpi	r24, 0x0A	; 10
     206:	c0 f0       	brcs	.+48     	; 0x238 <__vector_2+0xc4>
		{
			lineReadingCounter++;
     208:	80 91 eb 01 	lds	r24, 0x01EB
     20c:	8f 5f       	subi	r24, 0xFF	; 255
     20e:	80 93 eb 01 	sts	0x01EB, r24
			if(lineReadingCounter == 150)
     212:	80 91 eb 01 	lds	r24, 0x01EB
     216:	86 39       	cpi	r24, 0x96	; 150
     218:	99 f4       	brne	.+38     	; 0x240 <__vector_2+0xcc>
			{
				TIMSK0 = 0;
     21a:	10 92 6e 00 	sts	0x006E, r1
				wheelData = 0;
     21e:	10 92 23 02 	sts	0x0223, r1
				TXwheelData();
     222:	1b d6       	rcall	.+3126   	; 0xe5a <TXwheelData>
				stationModeEnable = 1;
     224:	81 e0       	ldi	r24, 0x01	; 1
     226:	80 93 ea 01 	sts	0x01EA, r24
				stationRightSensCounter = 0;
     22a:	10 92 f0 01 	sts	0x01F0, r1
				stationLeftSensCounter = 0;
     22e:	10 92 ec 01 	sts	0x01EC, r1
				lineReadingCounter = 0;
     232:	10 92 eb 01 	sts	0x01EB, r1
     236:	04 c0       	rjmp	.+8      	; 0x240 <__vector_2+0xcc>
				//send info about station
			}
		}
		else
		{
			stationLeftSensCounter = 0;
     238:	10 92 ec 01 	sts	0x01EC, r1
			stationRightSensCounter = 0;
     23c:	10 92 f0 01 	sts	0x01F0, r1
		}
		
	}
	//slaveSelect(CONTROLSLAVE);
}
     240:	ff 91       	pop	r31
     242:	ef 91       	pop	r30
     244:	bf 91       	pop	r27
     246:	af 91       	pop	r26
     248:	9f 91       	pop	r25
     24a:	8f 91       	pop	r24
     24c:	7f 91       	pop	r23
     24e:	6f 91       	pop	r22
     250:	5f 91       	pop	r21
     252:	4f 91       	pop	r20
     254:	3f 91       	pop	r19
     256:	2f 91       	pop	r18
     258:	0f 90       	pop	r0
     25a:	0b be       	out	0x3b, r0	; 59
     25c:	0f 90       	pop	r0
     25e:	0f be       	out	0x3f, r0	; 63
     260:	0f 90       	pop	r0
     262:	1f 90       	pop	r1
     264:	18 95       	reti

00000266 <__vector_3>:

ISR(INT2_vect)
{
     266:	1f 92       	push	r1
     268:	0f 92       	push	r0
     26a:	0f b6       	in	r0, 0x3f	; 63
     26c:	0f 92       	push	r0
     26e:	11 24       	eor	r1, r1
     270:	0b b6       	in	r0, 0x3b	; 59
     272:	0f 92       	push	r0
     274:	2f 93       	push	r18
     276:	3f 93       	push	r19
     278:	4f 93       	push	r20
     27a:	5f 93       	push	r21
     27c:	6f 93       	push	r22
     27e:	7f 93       	push	r23
     280:	8f 93       	push	r24
     282:	9f 93       	push	r25
     284:	af 93       	push	r26
     286:	bf 93       	push	r27
     288:	ef 93       	push	r30
     28a:	ff 93       	push	r31
	slaveSelect(CONTROLSLAVE);
     28c:	8a e0       	ldi	r24, 0x0A	; 10
     28e:	98 d5       	rcall	.+2864   	; 0xdc0 <slaveSelect>
	finishedDrop = masterRX(0x01);
     290:	81 e0       	ldi	r24, 0x01	; 1
     292:	86 d5       	rcall	.+2828   	; 0xda0 <masterRX>
     294:	80 93 ed 01 	sts	0x01ED, r24
}
     298:	ff 91       	pop	r31
     29a:	ef 91       	pop	r30
     29c:	bf 91       	pop	r27
     29e:	af 91       	pop	r26
     2a0:	9f 91       	pop	r25
     2a2:	8f 91       	pop	r24
     2a4:	7f 91       	pop	r23
     2a6:	6f 91       	pop	r22
     2a8:	5f 91       	pop	r21
     2aa:	4f 91       	pop	r20
     2ac:	3f 91       	pop	r19
     2ae:	2f 91       	pop	r18
     2b0:	0f 90       	pop	r0
     2b2:	0b be       	out	0x3b, r0	; 59
     2b4:	0f 90       	pop	r0
     2b6:	0f be       	out	0x3f, r0	; 63
     2b8:	0f 90       	pop	r0
     2ba:	1f 90       	pop	r1
     2bc:	18 95       	reti

000002be <__vector_16>:

/* Timer interrupt routine handling sensor data receive */
ISR(TIMER0_COMPA_vect)
{
     2be:	1f 92       	push	r1
     2c0:	0f 92       	push	r0
     2c2:	0f b6       	in	r0, 0x3f	; 63
     2c4:	0f 92       	push	r0
     2c6:	11 24       	eor	r1, r1
     2c8:	0b b6       	in	r0, 0x3b	; 59
     2ca:	0f 92       	push	r0
     2cc:	2f 93       	push	r18
     2ce:	3f 93       	push	r19
     2d0:	4f 93       	push	r20
     2d2:	5f 93       	push	r21
     2d4:	6f 93       	push	r22
     2d6:	7f 93       	push	r23
     2d8:	8f 93       	push	r24
     2da:	9f 93       	push	r25
     2dc:	af 93       	push	r26
     2de:	bf 93       	push	r27
     2e0:	ef 93       	push	r30
     2e2:	ff 93       	push	r31
	if(stationModeEnable == 0)
     2e4:	80 91 ea 01 	lds	r24, 0x01EA
     2e8:	81 11       	cpse	r24, r1
     2ea:	01 c0       	rjmp	.+2      	; 0x2ee <__vector_16+0x30>
	{
		RXsensorData();
     2ec:	ad d5       	rcall	.+2906   	; 0xe48 <RXsensorData>
	}
}
     2ee:	ff 91       	pop	r31
     2f0:	ef 91       	pop	r30
     2f2:	bf 91       	pop	r27
     2f4:	af 91       	pop	r26
     2f6:	9f 91       	pop	r25
     2f8:	8f 91       	pop	r24
     2fa:	7f 91       	pop	r23
     2fc:	6f 91       	pop	r22
     2fe:	5f 91       	pop	r21
     300:	4f 91       	pop	r20
     302:	3f 91       	pop	r19
     304:	2f 91       	pop	r18
     306:	0f 90       	pop	r0
     308:	0b be       	out	0x3b, r0	; 59
     30a:	0f 90       	pop	r0
     30c:	0f be       	out	0x3f, r0	; 63
     30e:	0f 90       	pop	r0
     310:	1f 90       	pop	r1
     312:	18 95       	reti

00000314 <__vector_17>:

/* Timer interrupt routine handling sensor data transmission*/
ISR(TIMER0_COMPB_vect)
{
     314:	1f 92       	push	r1
     316:	0f 92       	push	r0
     318:	0f b6       	in	r0, 0x3f	; 63
     31a:	0f 92       	push	r0
     31c:	11 24       	eor	r1, r1
     31e:	0b b6       	in	r0, 0x3b	; 59
     320:	0f 92       	push	r0
     322:	2f 93       	push	r18
     324:	3f 93       	push	r19
     326:	4f 93       	push	r20
     328:	5f 93       	push	r21
     32a:	6f 93       	push	r22
     32c:	7f 93       	push	r23
     32e:	8f 93       	push	r24
     330:	9f 93       	push	r25
     332:	af 93       	push	r26
     334:	bf 93       	push	r27
     336:	ef 93       	push	r30
     338:	ff 93       	push	r31
	if(stationModeEnable == 0)
     33a:	80 91 ea 01 	lds	r24, 0x01EA
     33e:	81 11       	cpse	r24, r1
     340:	05 c0       	rjmp	.+10     	; 0x34c <__vector_17+0x38>
	{
		TXsensorData();
     342:	77 d5       	rcall	.+2798   	; 0xe32 <TXsensorData>
		TXbluetoothInstr(SENSINSTR, sensorData);
     344:	60 91 f6 01 	lds	r22, 0x01F6
     348:	87 e0       	ldi	r24, 0x07	; 7
     34a:	eb de       	rcall	.-554    	; 0x122 <TXbluetoothInstr>
	}
}
     34c:	ff 91       	pop	r31
     34e:	ef 91       	pop	r30
     350:	bf 91       	pop	r27
     352:	af 91       	pop	r26
     354:	9f 91       	pop	r25
     356:	8f 91       	pop	r24
     358:	7f 91       	pop	r23
     35a:	6f 91       	pop	r22
     35c:	5f 91       	pop	r21
     35e:	4f 91       	pop	r20
     360:	3f 91       	pop	r19
     362:	2f 91       	pop	r18
     364:	0f 90       	pop	r0
     366:	0b be       	out	0x3b, r0	; 59
     368:	0f 90       	pop	r0
     36a:	0f be       	out	0x3f, r0	; 63
     36c:	0f 90       	pop	r0
     36e:	1f 90       	pop	r1
     370:	18 95       	reti

00000372 <__vector_28>:
}

/*
When the receive of one byte is complete, this interrupt will run.
*/
ISR(USART1_RX_vect){
     372:	1f 92       	push	r1
     374:	0f 92       	push	r0
     376:	0f b6       	in	r0, 0x3f	; 63
     378:	0f 92       	push	r0
     37a:	11 24       	eor	r1, r1
     37c:	0b b6       	in	r0, 0x3b	; 59
     37e:	0f 92       	push	r0
     380:	2f 93       	push	r18
     382:	3f 93       	push	r19
     384:	4f 93       	push	r20
     386:	5f 93       	push	r21
     388:	6f 93       	push	r22
     38a:	7f 93       	push	r23
     38c:	8f 93       	push	r24
     38e:	9f 93       	push	r25
     390:	af 93       	push	r26
     392:	bf 93       	push	r27
     394:	ef 93       	push	r30
     396:	ff 93       	push	r31
	newStream[digit] = UDR1;
     398:	80 91 df 01 	lds	r24, 0x01DF
     39c:	90 91 ce 00 	lds	r25, 0x00CE
     3a0:	e8 2f       	mov	r30, r24
     3a2:	f0 e0       	ldi	r31, 0x00	; 0
     3a4:	ee 52       	subi	r30, 0x2E	; 46
     3a6:	fe 4f       	sbci	r31, 0xFE	; 254
     3a8:	90 83       	st	Z, r25
	digit++;
     3aa:	8f 5f       	subi	r24, 0xFF	; 255
	if (digit == 12) {
     3ac:	8c 30       	cpi	r24, 0x0C	; 12
     3ae:	19 f0       	breq	.+6      	; 0x3b6 <__vector_28+0x44>
/*
When the receive of one byte is complete, this interrupt will run.
*/
ISR(USART1_RX_vect){
	newStream[digit] = UDR1;
	digit++;
     3b0:	80 93 df 01 	sts	0x01DF, r24
     3b4:	07 c0       	rjmp	.+14     	; 0x3c4 <__vector_28+0x52>
	if (digit == 12) {
		digit = 0;
     3b6:	10 92 df 01 	sts	0x01DF, r1
		streamFilled = 1;
     3ba:	81 e0       	ldi	r24, 0x01	; 1
     3bc:	80 93 f1 01 	sts	0x01F1, r24
		powerRFID(0);
     3c0:	80 e0       	ldi	r24, 0x00	; 0
     3c2:	7f d6       	rcall	.+3326   	; 0x10c2 <powerRFID>
	}
}
     3c4:	ff 91       	pop	r31
     3c6:	ef 91       	pop	r30
     3c8:	bf 91       	pop	r27
     3ca:	af 91       	pop	r26
     3cc:	9f 91       	pop	r25
     3ce:	8f 91       	pop	r24
     3d0:	7f 91       	pop	r23
     3d2:	6f 91       	pop	r22
     3d4:	5f 91       	pop	r21
     3d6:	4f 91       	pop	r20
     3d8:	3f 91       	pop	r19
     3da:	2f 91       	pop	r18
     3dc:	0f 90       	pop	r0
     3de:	0b be       	out	0x3b, r0	; 59
     3e0:	0f 90       	pop	r0
     3e2:	0f be       	out	0x3f, r0	; 63
     3e4:	0f 90       	pop	r0
     3e6:	1f 90       	pop	r1
     3e8:	18 95       	reti

000003ea <initManualMode>:
}

/*Function that initiates manual mode*/
void initManualMode()
{
	DDRD &= ~(1 << DDD6);
     3ea:	56 98       	cbi	0x0a, 6	; 10
	PCICR = 0x08; //sets PCINT31..24 as possible external interrupt port
     3ec:	88 e0       	ldi	r24, 0x08	; 8
     3ee:	80 93 68 00 	sts	0x0068, r24
	PCMSK3 = 0x40; //enables external interrupt on PORT PCINT30   - pin 20
     3f2:	80 e4       	ldi	r24, 0x40	; 64
     3f4:	80 93 73 00 	sts	0x0073, r24
	automaticModeEnabled = 0;
     3f8:	10 92 de 01 	sts	0x01DE, r1
	manualModeEnabled = 1;
     3fc:	81 e0       	ldi	r24, 0x01	; 1
     3fe:	80 93 24 02 	sts	0x0224, r24
	stationLeftSensCounter = 0;
     402:	10 92 ec 01 	sts	0x01EC, r1
	stationRightSensCounter = 0;
     406:	10 92 f0 01 	sts	0x01F0, r1
	lineReadingCounter = 0;
     40a:	10 92 eb 01 	sts	0x01EB, r1
     40e:	08 95       	ret

00000410 <main>:
 }

int main(void)
{
	
	setupWarehouse();
     410:	1a d7       	rcall	.+3636   	; 0x1246 <setupWarehouse>
	initManualMode();
     412:	eb df       	rcall	.-42     	; 0x3ea <initManualMode>
	SPI_Init_Master();
     414:	9e d4       	rcall	.+2364   	; 0xd52 <SPI_Init_Master>
	setupBluetoothRXTX();
     416:	76 de       	rcall	.-788    	; 0x104 <setupBluetoothRXTX>
	setupRFID();
     418:	03 d7       	rcall	.+3590   	; 0x1220 <setupRFID>
	setupLCD();
     41a:	28 d7       	rcall	.+3664   	; 0x126c <setupLCD>
	
	while(1)
	{
		if(stationModeEnable == 1)
     41c:	80 91 ea 01 	lds	r24, 0x01EA
     420:	88 23       	and	r24, r24
     422:	e1 f3       	breq	.-8      	; 0x41c <main+0xc>
		{
			stationMode();
     424:	dd d6       	rcall	.+3514   	; 0x11e0 <stationMode>
     426:	fa cf       	rjmp	.-12     	; 0x41c <main+0xc>

00000428 <toggleMode>:
	lineReadingCounter = 0;
}

void toggleMode()
{
	if(automaticModeEnabled == 0)
     428:	80 91 de 01 	lds	r24, 0x01DE
     42c:	81 11       	cpse	r24, r1
     42e:	0e c0       	rjmp	.+28     	; 0x44c <toggleMode+0x24>
	{
		automaticModeEnabled = 1;
     430:	81 e0       	ldi	r24, 0x01	; 1
     432:	80 93 de 01 	sts	0x01DE, r24
		manualModeEnabled = 0;
     436:	10 92 24 02 	sts	0x0224, r1
		TIMSK0 = 0x06;
     43a:	86 e0       	ldi	r24, 0x06	; 6
     43c:	80 93 6e 00 	sts	0x006E, r24
		stationModeEnable = 0;
     440:	10 92 ea 01 	sts	0x01EA, r1
		TXbluetoothInstr(MODEINSTR, manualModeEnabled); 	//Send info about mode to GUI
     444:	60 91 24 02 	lds	r22, 0x0224
     448:	88 e0       	ldi	r24, 0x08	; 8
     44a:	6b ce       	rjmp	.-810    	; 0x122 <TXbluetoothInstr>
	
		
	} else if (manualModeEnabled == 0)
     44c:	80 91 24 02 	lds	r24, 0x0224
     450:	81 11       	cpse	r24, r1
     452:	10 c0       	rjmp	.+32     	; 0x474 <toggleMode+0x4c>
	{
		automaticModeEnabled = 0;
     454:	10 92 de 01 	sts	0x01DE, r1
		manualModeEnabled = 1;
     458:	81 e0       	ldi	r24, 0x01	; 1
     45a:	80 93 24 02 	sts	0x0224, r24
		TIMSK0 = 0;
     45e:	10 92 6e 00 	sts	0x006E, r1
		stationModeEnable = 0;
     462:	10 92 ea 01 	sts	0x01EA, r1
		wheelData = 0;
     466:	10 92 23 02 	sts	0x0223, r1
		TXwheelData();
     46a:	f7 d4       	rcall	.+2542   	; 0xe5a <TXwheelData>
		TXbluetoothInstr(MODEINSTR, manualModeEnabled); //Send info about mode to GUI
     46c:	60 91 24 02 	lds	r22, 0x0224
     470:	88 e0       	ldi	r24, 0x08	; 8
     472:	57 ce       	rjmp	.-850    	; 0x122 <TXbluetoothInstr>
     474:	08 95       	ret

00000476 <__vector_7>:
		powerRFID(0);
	}
}

ISR(PCINT3_vect)
 {
     476:	1f 92       	push	r1
     478:	0f 92       	push	r0
     47a:	0f b6       	in	r0, 0x3f	; 63
     47c:	0f 92       	push	r0
     47e:	11 24       	eor	r1, r1
     480:	0b b6       	in	r0, 0x3b	; 59
     482:	0f 92       	push	r0
     484:	2f 93       	push	r18
     486:	3f 93       	push	r19
     488:	4f 93       	push	r20
     48a:	5f 93       	push	r21
     48c:	6f 93       	push	r22
     48e:	7f 93       	push	r23
     490:	8f 93       	push	r24
     492:	9f 93       	push	r25
     494:	af 93       	push	r26
     496:	bf 93       	push	r27
     498:	ef 93       	push	r30
     49a:	ff 93       	push	r31
 	toggleMode();
     49c:	c5 df       	rcall	.-118    	; 0x428 <toggleMode>
 }
     49e:	ff 91       	pop	r31
     4a0:	ef 91       	pop	r30
     4a2:	bf 91       	pop	r27
     4a4:	af 91       	pop	r26
     4a6:	9f 91       	pop	r25
     4a8:	8f 91       	pop	r24
     4aa:	7f 91       	pop	r23
     4ac:	6f 91       	pop	r22
     4ae:	5f 91       	pop	r21
     4b0:	4f 91       	pop	r20
     4b2:	3f 91       	pop	r19
     4b4:	2f 91       	pop	r18
     4b6:	0f 90       	pop	r0
     4b8:	0b be       	out	0x3b, r0	; 59
     4ba:	0f 90       	pop	r0
     4bc:	0f be       	out	0x3f, r0	; 63
     4be:	0f 90       	pop	r0
     4c0:	1f 90       	pop	r1
     4c2:	18 95       	reti

000004c4 <__vector_20>:
}


/* Interrupt routine for receiving bluetooth data */
ISR(USART0_RX_vect)
{
     4c4:	1f 92       	push	r1
     4c6:	0f 92       	push	r0
     4c8:	0f b6       	in	r0, 0x3f	; 63
     4ca:	0f 92       	push	r0
     4cc:	11 24       	eor	r1, r1
     4ce:	0b b6       	in	r0, 0x3b	; 59
     4d0:	0f 92       	push	r0
     4d2:	2f 93       	push	r18
     4d4:	3f 93       	push	r19
     4d6:	4f 93       	push	r20
     4d8:	5f 93       	push	r21
     4da:	6f 93       	push	r22
     4dc:	7f 93       	push	r23
     4de:	8f 93       	push	r24
     4e0:	9f 93       	push	r25
     4e2:	af 93       	push	r26
     4e4:	bf 93       	push	r27
     4e6:	ef 93       	push	r30
     4e8:	ff 93       	push	r31
	btdata = UDR0;
     4ea:	80 91 c6 00 	lds	r24, 0x00C6
     4ee:	80 93 f7 01 	sts	0x01F7, r24
	if (waiting_for_instruction == 1) {
     4f2:	90 91 1e 02 	lds	r25, 0x021E
     4f6:	91 30       	cpi	r25, 0x01	; 1
     4f8:	61 f5       	brne	.+88     	; 0x552 <__vector_20+0x8e>
		waiting_for_instruction = 0;
     4fa:	10 92 1e 02 	sts	0x021E, r1
		if (btdata == 1) {
     4fe:	81 30       	cpi	r24, 0x01	; 1
     500:	19 f4       	brne	.+6      	; 0x508 <__vector_20+0x44>
			component = WHEEL;
     502:	80 93 ef 01 	sts	0x01EF, r24
     506:	51 c0       	rjmp	.+162    	; 0x5aa <__vector_20+0xe6>
		}
		else if(btdata == 2) {
     508:	82 30       	cpi	r24, 0x02	; 2
     50a:	19 f4       	brne	.+6      	; 0x512 <__vector_20+0x4e>
			component = ARM;
     50c:	80 93 ef 01 	sts	0x01EF, r24
     510:	4c c0       	rjmp	.+152    	; 0x5aa <__vector_20+0xe6>
		}
		else if(btdata == 3) {
     512:	83 30       	cpi	r24, 0x03	; 3
     514:	41 f4       	brne	.+16     	; 0x526 <__vector_20+0x62>
			waiting_for_instruction = 1;
     516:	81 e0       	ldi	r24, 0x01	; 1
     518:	80 93 1e 02 	sts	0x021E, r24
			component = CALINSTR;
     51c:	83 e0       	ldi	r24, 0x03	; 3
     51e:	80 93 ef 01 	sts	0x01EF, r24
			TXCalibration();
     522:	bd d4       	rcall	.+2426   	; 0xe9e <TXCalibration>
     524:	42 c0       	rjmp	.+132    	; 0x5aa <__vector_20+0xe6>
			
		}
		else if(btdata == 4) {
     526:	84 30       	cpi	r24, 0x04	; 4
     528:	19 f4       	brne	.+6      	; 0x530 <__vector_20+0x6c>
			component = PCONINSTR;
     52a:	80 93 ef 01 	sts	0x01EF, r24
     52e:	3d c0       	rjmp	.+122    	; 0x5aa <__vector_20+0xe6>
		}
		else if(btdata == 5) {
     530:	85 30       	cpi	r24, 0x05	; 5
     532:	19 f4       	brne	.+6      	; 0x53a <__vector_20+0x76>
			component = KPINSTR;
     534:	80 93 ef 01 	sts	0x01EF, r24
     538:	38 c0       	rjmp	.+112    	; 0x5aa <__vector_20+0xe6>
		}
		else if(btdata == 6) {
     53a:	86 30       	cpi	r24, 0x06	; 6
     53c:	19 f4       	brne	.+6      	; 0x544 <__vector_20+0x80>
			component = KDINSTR;
     53e:	80 93 ef 01 	sts	0x01EF, r24
     542:	33 c0       	rjmp	.+102    	; 0x5aa <__vector_20+0xe6>
		}
		else if(btdata == 7) { //Toggle mode instruction
     544:	87 30       	cpi	r24, 0x07	; 7
     546:	89 f5       	brne	.+98     	; 0x5aa <__vector_20+0xe6>
			waiting_for_instruction = 1;
     548:	81 e0       	ldi	r24, 0x01	; 1
     54a:	80 93 1e 02 	sts	0x021E, r24
			toggleMode();
     54e:	6c df       	rcall	.-296    	; 0x428 <toggleMode>
     550:	2c c0       	rjmp	.+88     	; 0x5aa <__vector_20+0xe6>
		}
	}
	else {
		waiting_for_instruction = 1;
     552:	91 e0       	ldi	r25, 0x01	; 1
     554:	90 93 1e 02 	sts	0x021E, r25
		if (component == WHEEL) {
     558:	90 91 ef 01 	lds	r25, 0x01EF
     55c:	91 30       	cpi	r25, 0x01	; 1
     55e:	41 f4       	brne	.+16     	; 0x570 <__vector_20+0xac>
			if(manualModeEnabled == 1) {
     560:	90 91 24 02 	lds	r25, 0x0224
     564:	91 30       	cpi	r25, 0x01	; 1
     566:	09 f5       	brne	.+66     	; 0x5aa <__vector_20+0xe6>
				wheelData = btdata;
     568:	80 93 23 02 	sts	0x0223, r24
				TXwheelData();
     56c:	76 d4       	rcall	.+2284   	; 0xe5a <TXwheelData>
     56e:	1d c0       	rjmp	.+58     	; 0x5aa <__vector_20+0xe6>
			}
		}
		else if (component == ARM) {
     570:	90 91 ef 01 	lds	r25, 0x01EF
     574:	92 30       	cpi	r25, 0x02	; 2
     576:	21 f4       	brne	.+8      	; 0x580 <__vector_20+0xbc>
			armData = btdata;
     578:	80 93 f4 01 	sts	0x01F4, r24
			TXarmData();
     57c:	77 d4       	rcall	.+2286   	; 0xe6c <TXarmData>
     57e:	15 c0       	rjmp	.+42     	; 0x5aa <__vector_20+0xe6>
		}
		else if (component == PCONINSTR) {
     580:	90 91 ef 01 	lds	r25, 0x01EF
     584:	94 30       	cpi	r25, 0x04	; 4
     586:	11 f4       	brne	.+4      	; 0x58c <__vector_20+0xc8>
			handleData(btdata);
     588:	a0 dd       	rcall	.-1216   	; 0xca <handleData>
     58a:	0f c0       	rjmp	.+30     	; 0x5aa <__vector_20+0xe6>
		}
		else if (component == KPINSTR) {
     58c:	90 91 ef 01 	lds	r25, 0x01EF
     590:	95 30       	cpi	r25, 0x05	; 5
     592:	21 f4       	brne	.+8      	; 0x59c <__vector_20+0xd8>
			Kp = btdata;
     594:	80 93 20 02 	sts	0x0220, r24
			TXKpData();
     598:	70 d4       	rcall	.+2272   	; 0xe7a <TXKpData>
     59a:	07 c0       	rjmp	.+14     	; 0x5aa <__vector_20+0xe6>
		}
		else if (component == KDINSTR) {
     59c:	90 91 ef 01 	lds	r25, 0x01EF
     5a0:	96 30       	cpi	r25, 0x06	; 6
     5a2:	19 f4       	brne	.+6      	; 0x5aa <__vector_20+0xe6>
			Kd = btdata;
     5a4:	80 93 1f 02 	sts	0x021F, r24
			TXKpData();
     5a8:	68 d4       	rcall	.+2256   	; 0xe7a <TXKpData>
		}
	}
}
     5aa:	ff 91       	pop	r31
     5ac:	ef 91       	pop	r30
     5ae:	bf 91       	pop	r27
     5b0:	af 91       	pop	r26
     5b2:	9f 91       	pop	r25
     5b4:	8f 91       	pop	r24
     5b6:	7f 91       	pop	r23
     5b8:	6f 91       	pop	r22
     5ba:	5f 91       	pop	r21
     5bc:	4f 91       	pop	r20
     5be:	3f 91       	pop	r19
     5c0:	2f 91       	pop	r18
     5c2:	0f 90       	pop	r0
     5c4:	0b be       	out	0x3b, r0	; 59
     5c6:	0f 90       	pop	r0
     5c8:	0f be       	out	0x3f, r0	; 63
     5ca:	0f 90       	pop	r0
     5cc:	1f 90       	pop	r1
     5ce:	18 95       	reti

000005d0 <_hd44780_l_func>:
	_hd44780_l_func(conf, 0, 0, ((_BV(6) | addr) & ~_BV(7)), 40);
}

void hd44780_l_set_ddram_addr(const struct hd44780_l_conf* conf, uint8_t addr) {
	_hd44780_l_func(conf, 0, 0, (_BV(7) | addr), 40);
}
     5d0:	0f 93       	push	r16
     5d2:	1f 93       	push	r17
     5d4:	cf 93       	push	r28
     5d6:	df 93       	push	r29
     5d8:	fc 01       	movw	r30, r24
     5da:	90 81       	ld	r25, Z
     5dc:	a3 85       	ldd	r26, Z+11	; 0x0b
     5de:	b4 85       	ldd	r27, Z+12	; 0x0c
     5e0:	61 11       	cpse	r22, r1
     5e2:	0e c0       	rjmp	.+28     	; 0x600 <_hd44780_l_func+0x30>
     5e4:	3c 91       	ld	r19, X
     5e6:	61 e0       	ldi	r22, 0x01	; 1
     5e8:	70 e0       	ldi	r23, 0x00	; 0
     5ea:	eb 01       	movw	r28, r22
     5ec:	02 c0       	rjmp	.+4      	; 0x5f2 <_hd44780_l_func+0x22>
     5ee:	cc 0f       	add	r28, r28
     5f0:	dd 1f       	adc	r29, r29
     5f2:	9a 95       	dec	r25
     5f4:	e2 f7       	brpl	.-8      	; 0x5ee <_hd44780_l_func+0x1e>
     5f6:	ce 01       	movw	r24, r28
     5f8:	80 95       	com	r24
     5fa:	83 23       	and	r24, r19
     5fc:	8c 93       	st	X, r24
     5fe:	0c c0       	rjmp	.+24     	; 0x618 <_hd44780_l_func+0x48>
     600:	3c 91       	ld	r19, X
     602:	61 e0       	ldi	r22, 0x01	; 1
     604:	70 e0       	ldi	r23, 0x00	; 0
     606:	eb 01       	movw	r28, r22
     608:	02 c0       	rjmp	.+4      	; 0x60e <_hd44780_l_func+0x3e>
     60a:	cc 0f       	add	r28, r28
     60c:	dd 1f       	adc	r29, r29
     60e:	9a 95       	dec	r25
     610:	e2 f7       	brpl	.-8      	; 0x60a <_hd44780_l_func+0x3a>
     612:	ce 01       	movw	r24, r28
     614:	83 2b       	or	r24, r19
     616:	8c 93       	st	X, r24
     618:	91 81       	ldd	r25, Z+1	; 0x01
     61a:	a5 85       	ldd	r26, Z+13	; 0x0d
     61c:	b6 85       	ldd	r27, Z+14	; 0x0e
     61e:	41 11       	cpse	r20, r1
     620:	0e c0       	rjmp	.+28     	; 0x63e <_hd44780_l_func+0x6e>
     622:	3c 91       	ld	r19, X
     624:	41 e0       	ldi	r20, 0x01	; 1
     626:	50 e0       	ldi	r21, 0x00	; 0
     628:	ba 01       	movw	r22, r20
     62a:	02 c0       	rjmp	.+4      	; 0x630 <_hd44780_l_func+0x60>
     62c:	66 0f       	add	r22, r22
     62e:	77 1f       	adc	r23, r23
     630:	9a 95       	dec	r25
     632:	e2 f7       	brpl	.-8      	; 0x62c <_hd44780_l_func+0x5c>
     634:	cb 01       	movw	r24, r22
     636:	80 95       	com	r24
     638:	83 23       	and	r24, r19
     63a:	8c 93       	st	X, r24
     63c:	0c c0       	rjmp	.+24     	; 0x656 <_hd44780_l_func+0x86>
     63e:	3c 91       	ld	r19, X
     640:	41 e0       	ldi	r20, 0x01	; 1
     642:	50 e0       	ldi	r21, 0x00	; 0
     644:	ea 01       	movw	r28, r20
     646:	02 c0       	rjmp	.+4      	; 0x64c <_hd44780_l_func+0x7c>
     648:	cc 0f       	add	r28, r28
     64a:	dd 1f       	adc	r29, r29
     64c:	9a 95       	dec	r25
     64e:	e2 f7       	brpl	.-8      	; 0x648 <_hd44780_l_func+0x78>
     650:	ce 01       	movw	r24, r28
     652:	83 2b       	or	r24, r19
     654:	8c 93       	st	X, r24
     656:	93 81       	ldd	r25, Z+3	; 0x03
     658:	a1 89       	ldd	r26, Z+17	; 0x11
     65a:	b2 89       	ldd	r27, Z+18	; 0x12
     65c:	22 23       	and	r18, r18
     65e:	74 f0       	brlt	.+28     	; 0x67c <_hd44780_l_func+0xac>
     660:	3c 91       	ld	r19, X
     662:	41 e0       	ldi	r20, 0x01	; 1
     664:	50 e0       	ldi	r21, 0x00	; 0
     666:	ba 01       	movw	r22, r20
     668:	02 c0       	rjmp	.+4      	; 0x66e <_hd44780_l_func+0x9e>
     66a:	66 0f       	add	r22, r22
     66c:	77 1f       	adc	r23, r23
     66e:	9a 95       	dec	r25
     670:	e2 f7       	brpl	.-8      	; 0x66a <_hd44780_l_func+0x9a>
     672:	cb 01       	movw	r24, r22
     674:	80 95       	com	r24
     676:	83 23       	and	r24, r19
     678:	8c 93       	st	X, r24
     67a:	0c c0       	rjmp	.+24     	; 0x694 <_hd44780_l_func+0xc4>
     67c:	3c 91       	ld	r19, X
     67e:	41 e0       	ldi	r20, 0x01	; 1
     680:	50 e0       	ldi	r21, 0x00	; 0
     682:	ea 01       	movw	r28, r20
     684:	02 c0       	rjmp	.+4      	; 0x68a <_hd44780_l_func+0xba>
     686:	cc 0f       	add	r28, r28
     688:	dd 1f       	adc	r29, r29
     68a:	9a 95       	dec	r25
     68c:	e2 f7       	brpl	.-8      	; 0x686 <_hd44780_l_func+0xb6>
     68e:	ce 01       	movw	r24, r28
     690:	83 2b       	or	r24, r19
     692:	8c 93       	st	X, r24
     694:	94 81       	ldd	r25, Z+4	; 0x04
     696:	a3 89       	ldd	r26, Z+19	; 0x13
     698:	b4 89       	ldd	r27, Z+20	; 0x14
     69a:	26 fd       	sbrc	r18, 6
     69c:	0e c0       	rjmp	.+28     	; 0x6ba <_hd44780_l_func+0xea>
     69e:	3c 91       	ld	r19, X
     6a0:	41 e0       	ldi	r20, 0x01	; 1
     6a2:	50 e0       	ldi	r21, 0x00	; 0
     6a4:	ba 01       	movw	r22, r20
     6a6:	02 c0       	rjmp	.+4      	; 0x6ac <_hd44780_l_func+0xdc>
     6a8:	66 0f       	add	r22, r22
     6aa:	77 1f       	adc	r23, r23
     6ac:	9a 95       	dec	r25
     6ae:	e2 f7       	brpl	.-8      	; 0x6a8 <_hd44780_l_func+0xd8>
     6b0:	cb 01       	movw	r24, r22
     6b2:	80 95       	com	r24
     6b4:	83 23       	and	r24, r19
     6b6:	8c 93       	st	X, r24
     6b8:	0c c0       	rjmp	.+24     	; 0x6d2 <_hd44780_l_func+0x102>
     6ba:	3c 91       	ld	r19, X
     6bc:	41 e0       	ldi	r20, 0x01	; 1
     6be:	50 e0       	ldi	r21, 0x00	; 0
     6c0:	ea 01       	movw	r28, r20
     6c2:	02 c0       	rjmp	.+4      	; 0x6c8 <_hd44780_l_func+0xf8>
     6c4:	cc 0f       	add	r28, r28
     6c6:	dd 1f       	adc	r29, r29
     6c8:	9a 95       	dec	r25
     6ca:	e2 f7       	brpl	.-8      	; 0x6c4 <_hd44780_l_func+0xf4>
     6cc:	ce 01       	movw	r24, r28
     6ce:	83 2b       	or	r24, r19
     6d0:	8c 93       	st	X, r24
     6d2:	95 81       	ldd	r25, Z+5	; 0x05
     6d4:	a5 89       	ldd	r26, Z+21	; 0x15
     6d6:	b6 89       	ldd	r27, Z+22	; 0x16
     6d8:	25 fd       	sbrc	r18, 5
     6da:	0e c0       	rjmp	.+28     	; 0x6f8 <_hd44780_l_func+0x128>
     6dc:	3c 91       	ld	r19, X
     6de:	41 e0       	ldi	r20, 0x01	; 1
     6e0:	50 e0       	ldi	r21, 0x00	; 0
     6e2:	ba 01       	movw	r22, r20
     6e4:	02 c0       	rjmp	.+4      	; 0x6ea <_hd44780_l_func+0x11a>
     6e6:	66 0f       	add	r22, r22
     6e8:	77 1f       	adc	r23, r23
     6ea:	9a 95       	dec	r25
     6ec:	e2 f7       	brpl	.-8      	; 0x6e6 <_hd44780_l_func+0x116>
     6ee:	cb 01       	movw	r24, r22
     6f0:	80 95       	com	r24
     6f2:	83 23       	and	r24, r19
     6f4:	8c 93       	st	X, r24
     6f6:	0c c0       	rjmp	.+24     	; 0x710 <_hd44780_l_func+0x140>
     6f8:	3c 91       	ld	r19, X
     6fa:	41 e0       	ldi	r20, 0x01	; 1
     6fc:	50 e0       	ldi	r21, 0x00	; 0
     6fe:	ea 01       	movw	r28, r20
     700:	02 c0       	rjmp	.+4      	; 0x706 <_hd44780_l_func+0x136>
     702:	cc 0f       	add	r28, r28
     704:	dd 1f       	adc	r29, r29
     706:	9a 95       	dec	r25
     708:	e2 f7       	brpl	.-8      	; 0x702 <_hd44780_l_func+0x132>
     70a:	ce 01       	movw	r24, r28
     70c:	83 2b       	or	r24, r19
     70e:	8c 93       	st	X, r24
     710:	96 81       	ldd	r25, Z+6	; 0x06
     712:	a7 89       	ldd	r26, Z+23	; 0x17
     714:	b0 8d       	ldd	r27, Z+24	; 0x18
     716:	24 fd       	sbrc	r18, 4
     718:	0e c0       	rjmp	.+28     	; 0x736 <_hd44780_l_func+0x166>
     71a:	3c 91       	ld	r19, X
     71c:	41 e0       	ldi	r20, 0x01	; 1
     71e:	50 e0       	ldi	r21, 0x00	; 0
     720:	ba 01       	movw	r22, r20
     722:	02 c0       	rjmp	.+4      	; 0x728 <_hd44780_l_func+0x158>
     724:	66 0f       	add	r22, r22
     726:	77 1f       	adc	r23, r23
     728:	9a 95       	dec	r25
     72a:	e2 f7       	brpl	.-8      	; 0x724 <_hd44780_l_func+0x154>
     72c:	cb 01       	movw	r24, r22
     72e:	80 95       	com	r24
     730:	83 23       	and	r24, r19
     732:	8c 93       	st	X, r24
     734:	0c c0       	rjmp	.+24     	; 0x74e <_hd44780_l_func+0x17e>
     736:	3c 91       	ld	r19, X
     738:	41 e0       	ldi	r20, 0x01	; 1
     73a:	50 e0       	ldi	r21, 0x00	; 0
     73c:	ea 01       	movw	r28, r20
     73e:	02 c0       	rjmp	.+4      	; 0x744 <_hd44780_l_func+0x174>
     740:	cc 0f       	add	r28, r28
     742:	dd 1f       	adc	r29, r29
     744:	9a 95       	dec	r25
     746:	e2 f7       	brpl	.-8      	; 0x740 <_hd44780_l_func+0x170>
     748:	ce 01       	movw	r24, r28
     74a:	83 2b       	or	r24, r19
     74c:	8c 93       	st	X, r24
     74e:	83 a1       	ldd	r24, Z+35	; 0x23
     750:	81 11       	cpse	r24, r1
     752:	1f c0       	rjmp	.+62     	; 0x792 <_hd44780_l_func+0x1c2>
     754:	00 c0       	rjmp	.+0      	; 0x756 <_hd44780_l_func+0x186>
     756:	a7 85       	ldd	r26, Z+15	; 0x0f
     758:	b0 89       	ldd	r27, Z+16	; 0x10
     75a:	3c 91       	ld	r19, X
     75c:	81 e0       	ldi	r24, 0x01	; 1
     75e:	90 e0       	ldi	r25, 0x00	; 0
     760:	ac 01       	movw	r20, r24
     762:	02 80       	ldd	r0, Z+2	; 0x02
     764:	02 c0       	rjmp	.+4      	; 0x76a <_hd44780_l_func+0x19a>
     766:	44 0f       	add	r20, r20
     768:	55 1f       	adc	r21, r21
     76a:	0a 94       	dec	r0
     76c:	e2 f7       	brpl	.-8      	; 0x766 <_hd44780_l_func+0x196>
     76e:	43 2b       	or	r20, r19
     770:	4c 93       	st	X, r20
     772:	00 c0       	rjmp	.+0      	; 0x774 <_hd44780_l_func+0x1a4>
     774:	00 c0       	rjmp	.+0      	; 0x776 <_hd44780_l_func+0x1a6>
     776:	a7 85       	ldd	r26, Z+15	; 0x0f
     778:	b0 89       	ldd	r27, Z+16	; 0x10
     77a:	3c 91       	ld	r19, X
     77c:	02 80       	ldd	r0, Z+2	; 0x02
     77e:	02 c0       	rjmp	.+4      	; 0x784 <_hd44780_l_func+0x1b4>
     780:	88 0f       	add	r24, r24
     782:	99 1f       	adc	r25, r25
     784:	0a 94       	dec	r0
     786:	e2 f7       	brpl	.-8      	; 0x780 <_hd44780_l_func+0x1b0>
     788:	80 95       	com	r24
     78a:	83 23       	and	r24, r19
     78c:	8c 93       	st	X, r24
     78e:	00 c0       	rjmp	.+0      	; 0x790 <_hd44780_l_func+0x1c0>
     790:	00 c0       	rjmp	.+0      	; 0x792 <_hd44780_l_func+0x1c2>
     792:	83 a1       	ldd	r24, Z+35	; 0x23
     794:	81 30       	cpi	r24, 0x01	; 1
     796:	09 f0       	breq	.+2      	; 0x79a <_hd44780_l_func+0x1ca>
     798:	7d c0       	rjmp	.+250    	; 0x894 <_hd44780_l_func+0x2c4>
     79a:	97 81       	ldd	r25, Z+7	; 0x07
     79c:	a1 8d       	ldd	r26, Z+25	; 0x19
     79e:	b2 8d       	ldd	r27, Z+26	; 0x1a
     7a0:	23 fd       	sbrc	r18, 3
     7a2:	0e c0       	rjmp	.+28     	; 0x7c0 <_hd44780_l_func+0x1f0>
     7a4:	3c 91       	ld	r19, X
     7a6:	41 e0       	ldi	r20, 0x01	; 1
     7a8:	50 e0       	ldi	r21, 0x00	; 0
     7aa:	ba 01       	movw	r22, r20
     7ac:	02 c0       	rjmp	.+4      	; 0x7b2 <_hd44780_l_func+0x1e2>
     7ae:	66 0f       	add	r22, r22
     7b0:	77 1f       	adc	r23, r23
     7b2:	9a 95       	dec	r25
     7b4:	e2 f7       	brpl	.-8      	; 0x7ae <_hd44780_l_func+0x1de>
     7b6:	cb 01       	movw	r24, r22
     7b8:	80 95       	com	r24
     7ba:	83 23       	and	r24, r19
     7bc:	8c 93       	st	X, r24
     7be:	0c c0       	rjmp	.+24     	; 0x7d8 <_hd44780_l_func+0x208>
     7c0:	3c 91       	ld	r19, X
     7c2:	41 e0       	ldi	r20, 0x01	; 1
     7c4:	50 e0       	ldi	r21, 0x00	; 0
     7c6:	ea 01       	movw	r28, r20
     7c8:	02 c0       	rjmp	.+4      	; 0x7ce <_hd44780_l_func+0x1fe>
     7ca:	cc 0f       	add	r28, r28
     7cc:	dd 1f       	adc	r29, r29
     7ce:	9a 95       	dec	r25
     7d0:	e2 f7       	brpl	.-8      	; 0x7ca <_hd44780_l_func+0x1fa>
     7d2:	ce 01       	movw	r24, r28
     7d4:	83 2b       	or	r24, r19
     7d6:	8c 93       	st	X, r24
     7d8:	90 85       	ldd	r25, Z+8	; 0x08
     7da:	a3 8d       	ldd	r26, Z+27	; 0x1b
     7dc:	b4 8d       	ldd	r27, Z+28	; 0x1c
     7de:	22 fd       	sbrc	r18, 2
     7e0:	0e c0       	rjmp	.+28     	; 0x7fe <_hd44780_l_func+0x22e>
     7e2:	3c 91       	ld	r19, X
     7e4:	41 e0       	ldi	r20, 0x01	; 1
     7e6:	50 e0       	ldi	r21, 0x00	; 0
     7e8:	ba 01       	movw	r22, r20
     7ea:	02 c0       	rjmp	.+4      	; 0x7f0 <_hd44780_l_func+0x220>
     7ec:	66 0f       	add	r22, r22
     7ee:	77 1f       	adc	r23, r23
     7f0:	9a 95       	dec	r25
     7f2:	e2 f7       	brpl	.-8      	; 0x7ec <_hd44780_l_func+0x21c>
     7f4:	cb 01       	movw	r24, r22
     7f6:	80 95       	com	r24
     7f8:	83 23       	and	r24, r19
     7fa:	8c 93       	st	X, r24
     7fc:	0c c0       	rjmp	.+24     	; 0x816 <_hd44780_l_func+0x246>
     7fe:	3c 91       	ld	r19, X
     800:	41 e0       	ldi	r20, 0x01	; 1
     802:	50 e0       	ldi	r21, 0x00	; 0
     804:	ea 01       	movw	r28, r20
     806:	02 c0       	rjmp	.+4      	; 0x80c <_hd44780_l_func+0x23c>
     808:	cc 0f       	add	r28, r28
     80a:	dd 1f       	adc	r29, r29
     80c:	9a 95       	dec	r25
     80e:	e2 f7       	brpl	.-8      	; 0x808 <_hd44780_l_func+0x238>
     810:	ce 01       	movw	r24, r28
     812:	83 2b       	or	r24, r19
     814:	8c 93       	st	X, r24
     816:	91 85       	ldd	r25, Z+9	; 0x09
     818:	a5 8d       	ldd	r26, Z+29	; 0x1d
     81a:	b6 8d       	ldd	r27, Z+30	; 0x1e
     81c:	21 fd       	sbrc	r18, 1
     81e:	0e c0       	rjmp	.+28     	; 0x83c <_hd44780_l_func+0x26c>
     820:	3c 91       	ld	r19, X
     822:	41 e0       	ldi	r20, 0x01	; 1
     824:	50 e0       	ldi	r21, 0x00	; 0
     826:	ba 01       	movw	r22, r20
     828:	02 c0       	rjmp	.+4      	; 0x82e <_hd44780_l_func+0x25e>
     82a:	66 0f       	add	r22, r22
     82c:	77 1f       	adc	r23, r23
     82e:	9a 95       	dec	r25
     830:	e2 f7       	brpl	.-8      	; 0x82a <_hd44780_l_func+0x25a>
     832:	cb 01       	movw	r24, r22
     834:	80 95       	com	r24
     836:	83 23       	and	r24, r19
     838:	8c 93       	st	X, r24
     83a:	0c c0       	rjmp	.+24     	; 0x854 <_hd44780_l_func+0x284>
     83c:	3c 91       	ld	r19, X
     83e:	41 e0       	ldi	r20, 0x01	; 1
     840:	50 e0       	ldi	r21, 0x00	; 0
     842:	ea 01       	movw	r28, r20
     844:	02 c0       	rjmp	.+4      	; 0x84a <_hd44780_l_func+0x27a>
     846:	cc 0f       	add	r28, r28
     848:	dd 1f       	adc	r29, r29
     84a:	9a 95       	dec	r25
     84c:	e2 f7       	brpl	.-8      	; 0x846 <_hd44780_l_func+0x276>
     84e:	ce 01       	movw	r24, r28
     850:	83 2b       	or	r24, r19
     852:	8c 93       	st	X, r24
     854:	92 85       	ldd	r25, Z+10	; 0x0a
     856:	a7 8d       	ldd	r26, Z+31	; 0x1f
     858:	b0 a1       	ldd	r27, Z+32	; 0x20
     85a:	20 fd       	sbrc	r18, 0
     85c:	0e c0       	rjmp	.+28     	; 0x87a <_hd44780_l_func+0x2aa>
     85e:	4c 91       	ld	r20, X
     860:	21 e0       	ldi	r18, 0x01	; 1
     862:	30 e0       	ldi	r19, 0x00	; 0
     864:	b9 01       	movw	r22, r18
     866:	02 c0       	rjmp	.+4      	; 0x86c <_hd44780_l_func+0x29c>
     868:	66 0f       	add	r22, r22
     86a:	77 1f       	adc	r23, r23
     86c:	9a 95       	dec	r25
     86e:	e2 f7       	brpl	.-8      	; 0x868 <_hd44780_l_func+0x298>
     870:	cb 01       	movw	r24, r22
     872:	80 95       	com	r24
     874:	84 23       	and	r24, r20
     876:	8c 93       	st	X, r24
     878:	89 c0       	rjmp	.+274    	; 0x98c <_hd44780_l_func+0x3bc>
     87a:	4c 91       	ld	r20, X
     87c:	21 e0       	ldi	r18, 0x01	; 1
     87e:	30 e0       	ldi	r19, 0x00	; 0
     880:	e9 01       	movw	r28, r18
     882:	02 c0       	rjmp	.+4      	; 0x888 <_hd44780_l_func+0x2b8>
     884:	cc 0f       	add	r28, r28
     886:	dd 1f       	adc	r29, r29
     888:	9a 95       	dec	r25
     88a:	e2 f7       	brpl	.-8      	; 0x884 <_hd44780_l_func+0x2b4>
     88c:	ce 01       	movw	r24, r28
     88e:	84 2b       	or	r24, r20
     890:	8c 93       	st	X, r24
     892:	7c c0       	rjmp	.+248    	; 0x98c <_hd44780_l_func+0x3bc>
     894:	93 81       	ldd	r25, Z+3	; 0x03
     896:	a1 89       	ldd	r26, Z+17	; 0x11
     898:	b2 89       	ldd	r27, Z+18	; 0x12
     89a:	23 fd       	sbrc	r18, 3
     89c:	0e c0       	rjmp	.+28     	; 0x8ba <_hd44780_l_func+0x2ea>
     89e:	3c 91       	ld	r19, X
     8a0:	41 e0       	ldi	r20, 0x01	; 1
     8a2:	50 e0       	ldi	r21, 0x00	; 0
     8a4:	ba 01       	movw	r22, r20
     8a6:	02 c0       	rjmp	.+4      	; 0x8ac <_hd44780_l_func+0x2dc>
     8a8:	66 0f       	add	r22, r22
     8aa:	77 1f       	adc	r23, r23
     8ac:	9a 95       	dec	r25
     8ae:	e2 f7       	brpl	.-8      	; 0x8a8 <_hd44780_l_func+0x2d8>
     8b0:	cb 01       	movw	r24, r22
     8b2:	80 95       	com	r24
     8b4:	83 23       	and	r24, r19
     8b6:	8c 93       	st	X, r24
     8b8:	0c c0       	rjmp	.+24     	; 0x8d2 <_hd44780_l_func+0x302>
     8ba:	3c 91       	ld	r19, X
     8bc:	41 e0       	ldi	r20, 0x01	; 1
     8be:	50 e0       	ldi	r21, 0x00	; 0
     8c0:	ea 01       	movw	r28, r20
     8c2:	02 c0       	rjmp	.+4      	; 0x8c8 <_hd44780_l_func+0x2f8>
     8c4:	cc 0f       	add	r28, r28
     8c6:	dd 1f       	adc	r29, r29
     8c8:	9a 95       	dec	r25
     8ca:	e2 f7       	brpl	.-8      	; 0x8c4 <_hd44780_l_func+0x2f4>
     8cc:	ce 01       	movw	r24, r28
     8ce:	83 2b       	or	r24, r19
     8d0:	8c 93       	st	X, r24
     8d2:	94 81       	ldd	r25, Z+4	; 0x04
     8d4:	a3 89       	ldd	r26, Z+19	; 0x13
     8d6:	b4 89       	ldd	r27, Z+20	; 0x14
     8d8:	22 fd       	sbrc	r18, 2
     8da:	0e c0       	rjmp	.+28     	; 0x8f8 <_hd44780_l_func+0x328>
     8dc:	3c 91       	ld	r19, X
     8de:	41 e0       	ldi	r20, 0x01	; 1
     8e0:	50 e0       	ldi	r21, 0x00	; 0
     8e2:	ba 01       	movw	r22, r20
     8e4:	02 c0       	rjmp	.+4      	; 0x8ea <_hd44780_l_func+0x31a>
     8e6:	66 0f       	add	r22, r22
     8e8:	77 1f       	adc	r23, r23
     8ea:	9a 95       	dec	r25
     8ec:	e2 f7       	brpl	.-8      	; 0x8e6 <_hd44780_l_func+0x316>
     8ee:	cb 01       	movw	r24, r22
     8f0:	80 95       	com	r24
     8f2:	83 23       	and	r24, r19
     8f4:	8c 93       	st	X, r24
     8f6:	0c c0       	rjmp	.+24     	; 0x910 <_hd44780_l_func+0x340>
     8f8:	3c 91       	ld	r19, X
     8fa:	41 e0       	ldi	r20, 0x01	; 1
     8fc:	50 e0       	ldi	r21, 0x00	; 0
     8fe:	ea 01       	movw	r28, r20
     900:	02 c0       	rjmp	.+4      	; 0x906 <_hd44780_l_func+0x336>
     902:	cc 0f       	add	r28, r28
     904:	dd 1f       	adc	r29, r29
     906:	9a 95       	dec	r25
     908:	e2 f7       	brpl	.-8      	; 0x902 <_hd44780_l_func+0x332>
     90a:	ce 01       	movw	r24, r28
     90c:	83 2b       	or	r24, r19
     90e:	8c 93       	st	X, r24
     910:	95 81       	ldd	r25, Z+5	; 0x05
     912:	a5 89       	ldd	r26, Z+21	; 0x15
     914:	b6 89       	ldd	r27, Z+22	; 0x16
     916:	21 fd       	sbrc	r18, 1
     918:	0e c0       	rjmp	.+28     	; 0x936 <_hd44780_l_func+0x366>
     91a:	3c 91       	ld	r19, X
     91c:	41 e0       	ldi	r20, 0x01	; 1
     91e:	50 e0       	ldi	r21, 0x00	; 0
     920:	ba 01       	movw	r22, r20
     922:	02 c0       	rjmp	.+4      	; 0x928 <_hd44780_l_func+0x358>
     924:	66 0f       	add	r22, r22
     926:	77 1f       	adc	r23, r23
     928:	9a 95       	dec	r25
     92a:	e2 f7       	brpl	.-8      	; 0x924 <_hd44780_l_func+0x354>
     92c:	cb 01       	movw	r24, r22
     92e:	80 95       	com	r24
     930:	83 23       	and	r24, r19
     932:	8c 93       	st	X, r24
     934:	0c c0       	rjmp	.+24     	; 0x94e <_hd44780_l_func+0x37e>
     936:	3c 91       	ld	r19, X
     938:	41 e0       	ldi	r20, 0x01	; 1
     93a:	50 e0       	ldi	r21, 0x00	; 0
     93c:	ea 01       	movw	r28, r20
     93e:	02 c0       	rjmp	.+4      	; 0x944 <_hd44780_l_func+0x374>
     940:	cc 0f       	add	r28, r28
     942:	dd 1f       	adc	r29, r29
     944:	9a 95       	dec	r25
     946:	e2 f7       	brpl	.-8      	; 0x940 <_hd44780_l_func+0x370>
     948:	ce 01       	movw	r24, r28
     94a:	83 2b       	or	r24, r19
     94c:	8c 93       	st	X, r24
     94e:	96 81       	ldd	r25, Z+6	; 0x06
     950:	a7 89       	ldd	r26, Z+23	; 0x17
     952:	b0 8d       	ldd	r27, Z+24	; 0x18
     954:	20 fd       	sbrc	r18, 0
     956:	0e c0       	rjmp	.+28     	; 0x974 <_hd44780_l_func+0x3a4>
     958:	4c 91       	ld	r20, X
     95a:	21 e0       	ldi	r18, 0x01	; 1
     95c:	30 e0       	ldi	r19, 0x00	; 0
     95e:	b9 01       	movw	r22, r18
     960:	02 c0       	rjmp	.+4      	; 0x966 <_hd44780_l_func+0x396>
     962:	66 0f       	add	r22, r22
     964:	77 1f       	adc	r23, r23
     966:	9a 95       	dec	r25
     968:	e2 f7       	brpl	.-8      	; 0x962 <_hd44780_l_func+0x392>
     96a:	cb 01       	movw	r24, r22
     96c:	80 95       	com	r24
     96e:	84 23       	and	r24, r20
     970:	8c 93       	st	X, r24
     972:	0c c0       	rjmp	.+24     	; 0x98c <_hd44780_l_func+0x3bc>
     974:	4c 91       	ld	r20, X
     976:	21 e0       	ldi	r18, 0x01	; 1
     978:	30 e0       	ldi	r19, 0x00	; 0
     97a:	e9 01       	movw	r28, r18
     97c:	02 c0       	rjmp	.+4      	; 0x982 <_hd44780_l_func+0x3b2>
     97e:	cc 0f       	add	r28, r28
     980:	dd 1f       	adc	r29, r29
     982:	9a 95       	dec	r25
     984:	e2 f7       	brpl	.-8      	; 0x97e <_hd44780_l_func+0x3ae>
     986:	ce 01       	movw	r24, r28
     988:	84 2b       	or	r24, r20
     98a:	8c 93       	st	X, r24
     98c:	00 c0       	rjmp	.+0      	; 0x98e <_hd44780_l_func+0x3be>
     98e:	a7 85       	ldd	r26, Z+15	; 0x0f
     990:	b0 89       	ldd	r27, Z+16	; 0x10
     992:	4c 91       	ld	r20, X
     994:	81 e0       	ldi	r24, 0x01	; 1
     996:	90 e0       	ldi	r25, 0x00	; 0
     998:	9c 01       	movw	r18, r24
     99a:	02 80       	ldd	r0, Z+2	; 0x02
     99c:	02 c0       	rjmp	.+4      	; 0x9a2 <_hd44780_l_func+0x3d2>
     99e:	22 0f       	add	r18, r18
     9a0:	33 1f       	adc	r19, r19
     9a2:	0a 94       	dec	r0
     9a4:	e2 f7       	brpl	.-8      	; 0x99e <_hd44780_l_func+0x3ce>
     9a6:	24 2b       	or	r18, r20
     9a8:	2c 93       	st	X, r18
     9aa:	00 c0       	rjmp	.+0      	; 0x9ac <_hd44780_l_func+0x3dc>
     9ac:	00 c0       	rjmp	.+0      	; 0x9ae <_hd44780_l_func+0x3de>
     9ae:	a7 85       	ldd	r26, Z+15	; 0x0f
     9b0:	b0 89       	ldd	r27, Z+16	; 0x10
     9b2:	2c 91       	ld	r18, X
     9b4:	02 80       	ldd	r0, Z+2	; 0x02
     9b6:	02 c0       	rjmp	.+4      	; 0x9bc <_hd44780_l_func+0x3ec>
     9b8:	88 0f       	add	r24, r24
     9ba:	99 1f       	adc	r25, r25
     9bc:	0a 94       	dec	r0
     9be:	e2 f7       	brpl	.-8      	; 0x9b8 <_hd44780_l_func+0x3e8>
     9c0:	80 95       	com	r24
     9c2:	82 23       	and	r24, r18
     9c4:	8c 93       	st	X, r24
     9c6:	00 c0       	rjmp	.+0      	; 0x9c8 <_hd44780_l_func+0x3f8>
     9c8:	00 c0       	rjmp	.+0      	; 0x9ca <_hd44780_l_func+0x3fa>
     9ca:	01 15       	cp	r16, r1
     9cc:	11 05       	cpc	r17, r1
     9ce:	49 f0       	breq	.+18     	; 0x9e2 <_hd44780_l_func+0x412>
     9d0:	80 e0       	ldi	r24, 0x00	; 0
     9d2:	90 e0       	ldi	r25, 0x00	; 0
     9d4:	d5 e0       	ldi	r29, 0x05	; 5
     9d6:	da 95       	dec	r29
     9d8:	f1 f7       	brne	.-4      	; 0x9d6 <_hd44780_l_func+0x406>
     9da:	01 96       	adiw	r24, 0x01	; 1
     9dc:	80 17       	cp	r24, r16
     9de:	91 07       	cpc	r25, r17
     9e0:	c9 f7       	brne	.-14     	; 0x9d4 <_hd44780_l_func+0x404>
     9e2:	df 91       	pop	r29
     9e4:	cf 91       	pop	r28
     9e6:	1f 91       	pop	r17
     9e8:	0f 91       	pop	r16
     9ea:	08 95       	ret

000009ec <hd44780_l_clear_disp>:
     9ec:	0f 93       	push	r16
     9ee:	1f 93       	push	r17
     9f0:	08 e6       	ldi	r16, 0x68	; 104
     9f2:	16 e0       	ldi	r17, 0x06	; 6
     9f4:	21 e0       	ldi	r18, 0x01	; 1
     9f6:	40 e0       	ldi	r20, 0x00	; 0
     9f8:	60 e0       	ldi	r22, 0x00	; 0
     9fa:	ea dd       	rcall	.-1068   	; 0x5d0 <_hd44780_l_func>
     9fc:	1f 91       	pop	r17
     9fe:	0f 91       	pop	r16
     a00:	08 95       	ret

00000a02 <hd44780_l_ems>:
     a02:	0f 93       	push	r16
     a04:	1f 93       	push	r17
     a06:	e6 2f       	mov	r30, r22
     a08:	f0 e0       	ldi	r31, 0x00	; 0
     a0a:	bf 01       	movw	r22, r30
     a0c:	66 0f       	add	r22, r22
     a0e:	77 1f       	adc	r23, r23
     a10:	64 60       	ori	r22, 0x04	; 4
     a12:	24 2f       	mov	r18, r20
     a14:	26 2b       	or	r18, r22
     a16:	08 e2       	ldi	r16, 0x28	; 40
     a18:	10 e0       	ldi	r17, 0x00	; 0
     a1a:	40 e0       	ldi	r20, 0x00	; 0
     a1c:	60 e0       	ldi	r22, 0x00	; 0
     a1e:	d8 dd       	rcall	.-1104   	; 0x5d0 <_hd44780_l_func>
     a20:	1f 91       	pop	r17
     a22:	0f 91       	pop	r16
     a24:	08 95       	ret

00000a26 <hd44780_l_disp>:
     a26:	0f 93       	push	r16
     a28:	1f 93       	push	r17
     a2a:	e6 2f       	mov	r30, r22
     a2c:	f0 e0       	ldi	r31, 0x00	; 0
     a2e:	bf 01       	movw	r22, r30
     a30:	66 0f       	add	r22, r22
     a32:	77 1f       	adc	r23, r23
     a34:	66 0f       	add	r22, r22
     a36:	77 1f       	adc	r23, r23
     a38:	68 60       	ori	r22, 0x08	; 8
     a3a:	44 0f       	add	r20, r20
     a3c:	64 2b       	or	r22, r20
     a3e:	26 2b       	or	r18, r22
     a40:	08 e2       	ldi	r16, 0x28	; 40
     a42:	10 e0       	ldi	r17, 0x00	; 0
     a44:	40 e0       	ldi	r20, 0x00	; 0
     a46:	60 e0       	ldi	r22, 0x00	; 0
     a48:	c3 dd       	rcall	.-1146   	; 0x5d0 <_hd44780_l_func>
     a4a:	1f 91       	pop	r17
     a4c:	0f 91       	pop	r16
     a4e:	08 95       	ret

00000a50 <hd44780_l_fs>:
     a50:	0f 93       	push	r16
     a52:	1f 93       	push	r17
     a54:	44 0f       	add	r20, r20
     a56:	44 0f       	add	r20, r20
     a58:	44 0f       	add	r20, r20
     a5a:	30 e1       	ldi	r19, 0x10	; 16
     a5c:	63 9f       	mul	r22, r19
     a5e:	b0 01       	movw	r22, r0
     a60:	11 24       	eor	r1, r1
     a62:	60 62       	ori	r22, 0x20	; 32
     a64:	64 2b       	or	r22, r20
     a66:	22 0f       	add	r18, r18
     a68:	22 0f       	add	r18, r18
     a6a:	26 2b       	or	r18, r22
     a6c:	08 e2       	ldi	r16, 0x28	; 40
     a6e:	10 e0       	ldi	r17, 0x00	; 0
     a70:	40 e0       	ldi	r20, 0x00	; 0
     a72:	60 e0       	ldi	r22, 0x00	; 0
     a74:	ad dd       	rcall	.-1190   	; 0x5d0 <_hd44780_l_func>
     a76:	1f 91       	pop	r17
     a78:	0f 91       	pop	r16
     a7a:	08 95       	ret

00000a7c <hd44780_l_write>:

void hd44780_l_write(const struct hd44780_l_conf* conf, uint8_t data) {
     a7c:	0f 93       	push	r16
     a7e:	1f 93       	push	r17
     a80:	26 2f       	mov	r18, r22
	_hd44780_l_func(conf, 1, 0, data, 45);
     a82:	0d e2       	ldi	r16, 0x2D	; 45
     a84:	10 e0       	ldi	r17, 0x00	; 0
     a86:	40 e0       	ldi	r20, 0x00	; 0
     a88:	61 e0       	ldi	r22, 0x01	; 1
     a8a:	a2 dd       	rcall	.-1212   	; 0x5d0 <_hd44780_l_func>
}
     a8c:	1f 91       	pop	r17
     a8e:	0f 91       	pop	r16
     a90:	08 95       	ret

00000a92 <hd44780_l_init>:

void hd44780_l_init(const struct hd44780_l_conf* conf, uint8_t n, uint8_t f, uint8_t id, uint8_t s) {
     a92:	0f 93       	push	r16
     a94:	1f 93       	push	r17
     a96:	cf 93       	push	r28
     a98:	df 93       	push	r29
     a9a:	ec 01       	movw	r28, r24
     a9c:	12 2f       	mov	r17, r18
	#else
		//round up by default
		__ticks_dc = (uint32_t)(ceil(fabs(__tmp)));
	#endif

	__builtin_avr_delay_cycles(__ticks_dc);
     a9e:	8f ef       	ldi	r24, 0xFF	; 255
     aa0:	97 ed       	ldi	r25, 0xD7	; 215
     aa2:	01 97       	sbiw	r24, 0x01	; 1
     aa4:	f1 f7       	brne	.-4      	; 0xaa2 <hd44780_l_init+0x10>
     aa6:	00 c0       	rjmp	.+0      	; 0xaa8 <hd44780_l_init+0x16>
     aa8:	00 00       	nop
 * Clears all pins.
 *
 * @param conf	HD44780 configuration
 */
static inline void _hd44780_l_ca(const struct hd44780_l_conf* conf) {
	*(conf->rs_port) &= ~_BV(conf->rs_i);
     aaa:	eb 85       	ldd	r30, Y+11	; 0x0b
     aac:	fc 85       	ldd	r31, Y+12	; 0x0c
     aae:	50 81       	ld	r21, Z
     ab0:	81 e0       	ldi	r24, 0x01	; 1
     ab2:	90 e0       	ldi	r25, 0x00	; 0
     ab4:	9c 01       	movw	r18, r24
     ab6:	08 80       	ld	r0, Y
     ab8:	02 c0       	rjmp	.+4      	; 0xabe <hd44780_l_init+0x2c>
     aba:	22 0f       	add	r18, r18
     abc:	33 1f       	adc	r19, r19
     abe:	0a 94       	dec	r0
     ac0:	e2 f7       	brpl	.-8      	; 0xaba <hd44780_l_init+0x28>
     ac2:	20 95       	com	r18
     ac4:	25 23       	and	r18, r21
     ac6:	20 83       	st	Z, r18
	*(conf->rw_port) &= ~_BV(conf->rw_i);
     ac8:	ed 85       	ldd	r30, Y+13	; 0x0d
     aca:	fe 85       	ldd	r31, Y+14	; 0x0e
     acc:	50 81       	ld	r21, Z
     ace:	9c 01       	movw	r18, r24
     ad0:	09 80       	ldd	r0, Y+1	; 0x01
     ad2:	02 c0       	rjmp	.+4      	; 0xad8 <hd44780_l_init+0x46>
     ad4:	22 0f       	add	r18, r18
     ad6:	33 1f       	adc	r19, r19
     ad8:	0a 94       	dec	r0
     ada:	e2 f7       	brpl	.-8      	; 0xad4 <hd44780_l_init+0x42>
     adc:	20 95       	com	r18
     ade:	25 23       	and	r18, r21
     ae0:	20 83       	st	Z, r18
	*(conf->en_port) &= ~_BV(conf->en_i);
     ae2:	ef 85       	ldd	r30, Y+15	; 0x0f
     ae4:	f8 89       	ldd	r31, Y+16	; 0x10
     ae6:	50 81       	ld	r21, Z
     ae8:	9c 01       	movw	r18, r24
     aea:	0a 80       	ldd	r0, Y+2	; 0x02
     aec:	02 c0       	rjmp	.+4      	; 0xaf2 <hd44780_l_init+0x60>
     aee:	22 0f       	add	r18, r18
     af0:	33 1f       	adc	r19, r19
     af2:	0a 94       	dec	r0
     af4:	e2 f7       	brpl	.-8      	; 0xaee <hd44780_l_init+0x5c>
     af6:	20 95       	com	r18
     af8:	25 23       	and	r18, r21
     afa:	20 83       	st	Z, r18
	*(conf->db7_port) &= ~_BV(conf->db7_i);
     afc:	e9 89       	ldd	r30, Y+17	; 0x11
     afe:	fa 89       	ldd	r31, Y+18	; 0x12
     b00:	50 81       	ld	r21, Z
     b02:	9c 01       	movw	r18, r24
     b04:	0b 80       	ldd	r0, Y+3	; 0x03
     b06:	02 c0       	rjmp	.+4      	; 0xb0c <hd44780_l_init+0x7a>
     b08:	22 0f       	add	r18, r18
     b0a:	33 1f       	adc	r19, r19
     b0c:	0a 94       	dec	r0
     b0e:	e2 f7       	brpl	.-8      	; 0xb08 <hd44780_l_init+0x76>
     b10:	20 95       	com	r18
     b12:	25 23       	and	r18, r21
     b14:	20 83       	st	Z, r18
	*(conf->db6_port) &= ~_BV(conf->db6_i);
     b16:	eb 89       	ldd	r30, Y+19	; 0x13
     b18:	fc 89       	ldd	r31, Y+20	; 0x14
     b1a:	50 81       	ld	r21, Z
     b1c:	9c 01       	movw	r18, r24
     b1e:	0c 80       	ldd	r0, Y+4	; 0x04
     b20:	02 c0       	rjmp	.+4      	; 0xb26 <hd44780_l_init+0x94>
     b22:	22 0f       	add	r18, r18
     b24:	33 1f       	adc	r19, r19
     b26:	0a 94       	dec	r0
     b28:	e2 f7       	brpl	.-8      	; 0xb22 <hd44780_l_init+0x90>
     b2a:	20 95       	com	r18
     b2c:	25 23       	and	r18, r21
     b2e:	20 83       	st	Z, r18
	*(conf->db5_port) &= ~_BV(conf->db5_i);
     b30:	ed 89       	ldd	r30, Y+21	; 0x15
     b32:	fe 89       	ldd	r31, Y+22	; 0x16
     b34:	50 81       	ld	r21, Z
     b36:	9c 01       	movw	r18, r24
     b38:	0d 80       	ldd	r0, Y+5	; 0x05
     b3a:	02 c0       	rjmp	.+4      	; 0xb40 <hd44780_l_init+0xae>
     b3c:	22 0f       	add	r18, r18
     b3e:	33 1f       	adc	r19, r19
     b40:	0a 94       	dec	r0
     b42:	e2 f7       	brpl	.-8      	; 0xb3c <hd44780_l_init+0xaa>
     b44:	20 95       	com	r18
     b46:	25 23       	and	r18, r21
     b48:	20 83       	st	Z, r18
	*(conf->db4_port) &= ~_BV(conf->db4_i);
     b4a:	ef 89       	ldd	r30, Y+23	; 0x17
     b4c:	f8 8d       	ldd	r31, Y+24	; 0x18
     b4e:	20 81       	ld	r18, Z
     b50:	0e 80       	ldd	r0, Y+6	; 0x06
     b52:	02 c0       	rjmp	.+4      	; 0xb58 <hd44780_l_init+0xc6>
     b54:	88 0f       	add	r24, r24
     b56:	99 1f       	adc	r25, r25
     b58:	0a 94       	dec	r0
     b5a:	e2 f7       	brpl	.-8      	; 0xb54 <hd44780_l_init+0xc2>
     b5c:	80 95       	com	r24
     b5e:	82 23       	and	r24, r18
     b60:	80 83       	st	Z, r24
	
	if (conf->dl == HD44780_L_FS_DL_8BIT) {
     b62:	8b a1       	ldd	r24, Y+35	; 0x23
     b64:	81 30       	cpi	r24, 0x01	; 1
     b66:	a9 f5       	brne	.+106    	; 0xbd2 <hd44780_l_init+0x140>
		*(conf->db3_port) &= ~_BV(conf->db3_i);
     b68:	e9 8d       	ldd	r30, Y+25	; 0x19
     b6a:	fa 8d       	ldd	r31, Y+26	; 0x1a
     b6c:	50 81       	ld	r21, Z
     b6e:	81 e0       	ldi	r24, 0x01	; 1
     b70:	90 e0       	ldi	r25, 0x00	; 0
     b72:	9c 01       	movw	r18, r24
     b74:	0f 80       	ldd	r0, Y+7	; 0x07
     b76:	02 c0       	rjmp	.+4      	; 0xb7c <hd44780_l_init+0xea>
     b78:	22 0f       	add	r18, r18
     b7a:	33 1f       	adc	r19, r19
     b7c:	0a 94       	dec	r0
     b7e:	e2 f7       	brpl	.-8      	; 0xb78 <hd44780_l_init+0xe6>
     b80:	20 95       	com	r18
     b82:	25 23       	and	r18, r21
     b84:	20 83       	st	Z, r18
		*(conf->db2_port) &= ~_BV(conf->db2_i);
     b86:	eb 8d       	ldd	r30, Y+27	; 0x1b
     b88:	fc 8d       	ldd	r31, Y+28	; 0x1c
     b8a:	50 81       	ld	r21, Z
     b8c:	9c 01       	movw	r18, r24
     b8e:	08 84       	ldd	r0, Y+8	; 0x08
     b90:	02 c0       	rjmp	.+4      	; 0xb96 <hd44780_l_init+0x104>
     b92:	22 0f       	add	r18, r18
     b94:	33 1f       	adc	r19, r19
     b96:	0a 94       	dec	r0
     b98:	e2 f7       	brpl	.-8      	; 0xb92 <hd44780_l_init+0x100>
     b9a:	20 95       	com	r18
     b9c:	25 23       	and	r18, r21
     b9e:	20 83       	st	Z, r18
		*(conf->db1_port) &= ~_BV(conf->db1_i);
     ba0:	ed 8d       	ldd	r30, Y+29	; 0x1d
     ba2:	fe 8d       	ldd	r31, Y+30	; 0x1e
     ba4:	50 81       	ld	r21, Z
     ba6:	9c 01       	movw	r18, r24
     ba8:	09 84       	ldd	r0, Y+9	; 0x09
     baa:	02 c0       	rjmp	.+4      	; 0xbb0 <hd44780_l_init+0x11e>
     bac:	22 0f       	add	r18, r18
     bae:	33 1f       	adc	r19, r19
     bb0:	0a 94       	dec	r0
     bb2:	e2 f7       	brpl	.-8      	; 0xbac <hd44780_l_init+0x11a>
     bb4:	20 95       	com	r18
     bb6:	25 23       	and	r18, r21
     bb8:	20 83       	st	Z, r18
		*(conf->db0_port) &= ~_BV(conf->db0_i);
     bba:	ef 8d       	ldd	r30, Y+31	; 0x1f
     bbc:	f8 a1       	ldd	r31, Y+32	; 0x20
     bbe:	20 81       	ld	r18, Z
     bc0:	0a 84       	ldd	r0, Y+10	; 0x0a
     bc2:	02 c0       	rjmp	.+4      	; 0xbc8 <hd44780_l_init+0x136>
     bc4:	88 0f       	add	r24, r24
     bc6:	99 1f       	adc	r25, r25
     bc8:	0a 94       	dec	r0
     bca:	e2 f7       	brpl	.-8      	; 0xbc4 <hd44780_l_init+0x132>
     bcc:	80 95       	com	r24
     bce:	82 23       	and	r24, r18
     bd0:	80 83       	st	Z, r24
	
	/* Clear all pins: */
	_hd44780_l_ca(conf);
	
	/* Special function set (for data length): */
	*(conf->db5_port) |= _BV(conf->db5_i);
     bd2:	ed 89       	ldd	r30, Y+21	; 0x15
     bd4:	fe 89       	ldd	r31, Y+22	; 0x16
     bd6:	50 81       	ld	r21, Z
     bd8:	81 e0       	ldi	r24, 0x01	; 1
     bda:	90 e0       	ldi	r25, 0x00	; 0
     bdc:	9c 01       	movw	r18, r24
     bde:	0d 80       	ldd	r0, Y+5	; 0x05
     be0:	02 c0       	rjmp	.+4      	; 0xbe6 <hd44780_l_init+0x154>
     be2:	22 0f       	add	r18, r18
     be4:	33 1f       	adc	r19, r19
     be6:	0a 94       	dec	r0
     be8:	e2 f7       	brpl	.-8      	; 0xbe2 <hd44780_l_init+0x150>
     bea:	25 2b       	or	r18, r21
     bec:	20 83       	st	Z, r18
	*(conf->db4_port) |= _BV(conf->db4_i);
     bee:	ef 89       	ldd	r30, Y+23	; 0x17
     bf0:	f8 8d       	ldd	r31, Y+24	; 0x18
     bf2:	50 81       	ld	r21, Z
     bf4:	9c 01       	movw	r18, r24
     bf6:	0e 80       	ldd	r0, Y+6	; 0x06
     bf8:	02 c0       	rjmp	.+4      	; 0xbfe <hd44780_l_init+0x16c>
     bfa:	22 0f       	add	r18, r18
     bfc:	33 1f       	adc	r19, r19
     bfe:	0a 94       	dec	r0
     c00:	e2 f7       	brpl	.-8      	; 0xbfa <hd44780_l_init+0x168>
     c02:	25 2b       	or	r18, r21
     c04:	20 83       	st	Z, r18
	#else
		//round up by default
		__ticks_dc = (uint32_t)(ceil(fabs(__tmp)));
	#endif

	__builtin_avr_delay_cycles(__ticks_dc);
     c06:	00 c0       	rjmp	.+0      	; 0xc08 <hd44780_l_init+0x176>
static inline void _hd44780_l_ec(const struct hd44780_l_conf* conf) {
	/* Max write setup time (data) is 80 ns: */
	_delay_us(0.08); /* _delay_us overhead is probably > 80 ns here... */
	
	/* Set EN: */
	*(conf->en_port) |= _BV(conf->en_i);
     c08:	ef 85       	ldd	r30, Y+15	; 0x0f
     c0a:	f8 89       	ldd	r31, Y+16	; 0x10
     c0c:	50 81       	ld	r21, Z
     c0e:	9c 01       	movw	r18, r24
     c10:	0a 80       	ldd	r0, Y+2	; 0x02
     c12:	02 c0       	rjmp	.+4      	; 0xc18 <hd44780_l_init+0x186>
     c14:	22 0f       	add	r18, r18
     c16:	33 1f       	adc	r19, r19
     c18:	0a 94       	dec	r0
     c1a:	e2 f7       	brpl	.-8      	; 0xc14 <hd44780_l_init+0x182>
     c1c:	25 2b       	or	r18, r21
     c1e:	20 83       	st	Z, r18
     c20:	00 c0       	rjmp	.+0      	; 0xc22 <hd44780_l_init+0x190>
     c22:	00 c0       	rjmp	.+0      	; 0xc24 <hd44780_l_init+0x192>
	
	/* Wait for EN pulse width (high level), 230 ns: */
	_delay_us(0.230);
	
	/* Clear EN: */
	*(conf->en_port) &= ~_BV(conf->en_i);
     c24:	ef 85       	ldd	r30, Y+15	; 0x0f
     c26:	f8 89       	ldd	r31, Y+16	; 0x10
     c28:	50 81       	ld	r21, Z
     c2a:	9c 01       	movw	r18, r24
     c2c:	0a 80       	ldd	r0, Y+2	; 0x02
     c2e:	02 c0       	rjmp	.+4      	; 0xc34 <hd44780_l_init+0x1a2>
     c30:	22 0f       	add	r18, r18
     c32:	33 1f       	adc	r19, r19
     c34:	0a 94       	dec	r0
     c36:	e2 f7       	brpl	.-8      	; 0xc30 <hd44780_l_init+0x19e>
     c38:	20 95       	com	r18
     c3a:	25 23       	and	r18, r21
     c3c:	20 83       	st	Z, r18
     c3e:	00 c0       	rjmp	.+0      	; 0xc40 <hd44780_l_init+0x1ae>
     c40:	00 c0       	rjmp	.+0      	; 0xc42 <hd44780_l_init+0x1b0>
	#else
		//round up by default
		__ticks_dc = (uint32_t)(ceil(fabs(__tmp)));
	#endif

	__builtin_avr_delay_cycles(__ticks_dc);
     c42:	ea e0       	ldi	r30, 0x0A	; 10
     c44:	fb e3       	ldi	r31, 0x3B	; 59
     c46:	31 97       	sbiw	r30, 0x01	; 1
     c48:	f1 f7       	brne	.-4      	; 0xc46 <hd44780_l_init+0x1b4>
	#else
		//round up by default
		__ticks_dc = (uint32_t)(ceil(fabs(__tmp)));
	#endif

	__builtin_avr_delay_cycles(__ticks_dc);
     c4a:	00 c0       	rjmp	.+0      	; 0xc4c <hd44780_l_init+0x1ba>
static inline void _hd44780_l_ec(const struct hd44780_l_conf* conf) {
	/* Max write setup time (data) is 80 ns: */
	_delay_us(0.08); /* _delay_us overhead is probably > 80 ns here... */
	
	/* Set EN: */
	*(conf->en_port) |= _BV(conf->en_i);
     c4c:	ef 85       	ldd	r30, Y+15	; 0x0f
     c4e:	f8 89       	ldd	r31, Y+16	; 0x10
     c50:	50 81       	ld	r21, Z
     c52:	9c 01       	movw	r18, r24
     c54:	0a 80       	ldd	r0, Y+2	; 0x02
     c56:	02 c0       	rjmp	.+4      	; 0xc5c <hd44780_l_init+0x1ca>
     c58:	22 0f       	add	r18, r18
     c5a:	33 1f       	adc	r19, r19
     c5c:	0a 94       	dec	r0
     c5e:	e2 f7       	brpl	.-8      	; 0xc58 <hd44780_l_init+0x1c6>
     c60:	25 2b       	or	r18, r21
     c62:	20 83       	st	Z, r18
     c64:	00 c0       	rjmp	.+0      	; 0xc66 <hd44780_l_init+0x1d4>
     c66:	00 c0       	rjmp	.+0      	; 0xc68 <hd44780_l_init+0x1d6>
	
	/* Wait for EN pulse width (high level), 230 ns: */
	_delay_us(0.230);
	
	/* Clear EN: */
	*(conf->en_port) &= ~_BV(conf->en_i);
     c68:	ef 85       	ldd	r30, Y+15	; 0x0f
     c6a:	f8 89       	ldd	r31, Y+16	; 0x10
     c6c:	50 81       	ld	r21, Z
     c6e:	9c 01       	movw	r18, r24
     c70:	0a 80       	ldd	r0, Y+2	; 0x02
     c72:	02 c0       	rjmp	.+4      	; 0xc78 <hd44780_l_init+0x1e6>
     c74:	22 0f       	add	r18, r18
     c76:	33 1f       	adc	r19, r19
     c78:	0a 94       	dec	r0
     c7a:	e2 f7       	brpl	.-8      	; 0xc74 <hd44780_l_init+0x1e2>
     c7c:	20 95       	com	r18
     c7e:	25 23       	and	r18, r21
     c80:	20 83       	st	Z, r18
     c82:	00 c0       	rjmp	.+0      	; 0xc84 <hd44780_l_init+0x1f2>
     c84:	00 c0       	rjmp	.+0      	; 0xc86 <hd44780_l_init+0x1f4>
     c86:	e0 e7       	ldi	r30, 0x70	; 112
     c88:	f1 e0       	ldi	r31, 0x01	; 1
     c8a:	31 97       	sbiw	r30, 0x01	; 1
     c8c:	f1 f7       	brne	.-4      	; 0xc8a <hd44780_l_init+0x1f8>
     c8e:	00 c0       	rjmp	.+0      	; 0xc90 <hd44780_l_init+0x1fe>
     c90:	00 c0       	rjmp	.+0      	; 0xc92 <hd44780_l_init+0x200>
static inline void _hd44780_l_ec(const struct hd44780_l_conf* conf) {
	/* Max write setup time (data) is 80 ns: */
	_delay_us(0.08); /* _delay_us overhead is probably > 80 ns here... */
	
	/* Set EN: */
	*(conf->en_port) |= _BV(conf->en_i);
     c92:	ef 85       	ldd	r30, Y+15	; 0x0f
     c94:	f8 89       	ldd	r31, Y+16	; 0x10
     c96:	50 81       	ld	r21, Z
     c98:	9c 01       	movw	r18, r24
     c9a:	0a 80       	ldd	r0, Y+2	; 0x02
     c9c:	02 c0       	rjmp	.+4      	; 0xca2 <hd44780_l_init+0x210>
     c9e:	22 0f       	add	r18, r18
     ca0:	33 1f       	adc	r19, r19
     ca2:	0a 94       	dec	r0
     ca4:	e2 f7       	brpl	.-8      	; 0xc9e <hd44780_l_init+0x20c>
     ca6:	25 2b       	or	r18, r21
     ca8:	20 83       	st	Z, r18
     caa:	00 c0       	rjmp	.+0      	; 0xcac <hd44780_l_init+0x21a>
     cac:	00 c0       	rjmp	.+0      	; 0xcae <hd44780_l_init+0x21c>
	
	/* Wait for EN pulse width (high level), 230 ns: */
	_delay_us(0.230);
	
	/* Clear EN: */
	*(conf->en_port) &= ~_BV(conf->en_i);
     cae:	ef 85       	ldd	r30, Y+15	; 0x0f
     cb0:	f8 89       	ldd	r31, Y+16	; 0x10
     cb2:	20 81       	ld	r18, Z
     cb4:	0a 80       	ldd	r0, Y+2	; 0x02
     cb6:	02 c0       	rjmp	.+4      	; 0xcbc <hd44780_l_init+0x22a>
     cb8:	88 0f       	add	r24, r24
     cba:	99 1f       	adc	r25, r25
     cbc:	0a 94       	dec	r0
     cbe:	e2 f7       	brpl	.-8      	; 0xcb8 <hd44780_l_init+0x226>
     cc0:	80 95       	com	r24
     cc2:	82 23       	and	r24, r18
     cc4:	80 83       	st	Z, r24
     cc6:	00 c0       	rjmp	.+0      	; 0xcc8 <hd44780_l_init+0x236>
     cc8:	00 c0       	rjmp	.+0      	; 0xcca <hd44780_l_init+0x238>
	
	/* Special function set (for data length): */
	_hd44780_l_ec(conf);
	
	/* 4-bit specific: */
	if (conf->dl == HD44780_L_FS_DL_4BIT) {
     cca:	8b a1       	ldd	r24, Y+35	; 0x23
     ccc:	81 11       	cpse	r24, r1
     cce:	2c c0       	rjmp	.+88     	; 0xd28 <hd44780_l_init+0x296>
		*(conf->db4_port) &= ~_BV(conf->db4_i);
     cd0:	ef 89       	ldd	r30, Y+23	; 0x17
     cd2:	f8 8d       	ldd	r31, Y+24	; 0x18
     cd4:	50 81       	ld	r21, Z
     cd6:	81 e0       	ldi	r24, 0x01	; 1
     cd8:	90 e0       	ldi	r25, 0x00	; 0
     cda:	9c 01       	movw	r18, r24
     cdc:	0e 80       	ldd	r0, Y+6	; 0x06
     cde:	02 c0       	rjmp	.+4      	; 0xce4 <hd44780_l_init+0x252>
     ce0:	22 0f       	add	r18, r18
     ce2:	33 1f       	adc	r19, r19
     ce4:	0a 94       	dec	r0
     ce6:	e2 f7       	brpl	.-8      	; 0xce0 <hd44780_l_init+0x24e>
     ce8:	20 95       	com	r18
     cea:	25 23       	and	r18, r21
     cec:	20 83       	st	Z, r18
     cee:	00 c0       	rjmp	.+0      	; 0xcf0 <hd44780_l_init+0x25e>
static inline void _hd44780_l_ec(const struct hd44780_l_conf* conf) {
	/* Max write setup time (data) is 80 ns: */
	_delay_us(0.08); /* _delay_us overhead is probably > 80 ns here... */
	
	/* Set EN: */
	*(conf->en_port) |= _BV(conf->en_i);
     cf0:	ef 85       	ldd	r30, Y+15	; 0x0f
     cf2:	f8 89       	ldd	r31, Y+16	; 0x10
     cf4:	50 81       	ld	r21, Z
     cf6:	9c 01       	movw	r18, r24
     cf8:	0a 80       	ldd	r0, Y+2	; 0x02
     cfa:	02 c0       	rjmp	.+4      	; 0xd00 <hd44780_l_init+0x26e>
     cfc:	22 0f       	add	r18, r18
     cfe:	33 1f       	adc	r19, r19
     d00:	0a 94       	dec	r0
     d02:	e2 f7       	brpl	.-8      	; 0xcfc <hd44780_l_init+0x26a>
     d04:	25 2b       	or	r18, r21
     d06:	20 83       	st	Z, r18
     d08:	00 c0       	rjmp	.+0      	; 0xd0a <hd44780_l_init+0x278>
     d0a:	00 c0       	rjmp	.+0      	; 0xd0c <hd44780_l_init+0x27a>
	
	/* Wait for EN pulse width (high level), 230 ns: */
	_delay_us(0.230);
	
	/* Clear EN: */
	*(conf->en_port) &= ~_BV(conf->en_i);
     d0c:	ef 85       	ldd	r30, Y+15	; 0x0f
     d0e:	f8 89       	ldd	r31, Y+16	; 0x10
     d10:	20 81       	ld	r18, Z
     d12:	0a 80       	ldd	r0, Y+2	; 0x02
     d14:	02 c0       	rjmp	.+4      	; 0xd1a <hd44780_l_init+0x288>
     d16:	88 0f       	add	r24, r24
     d18:	99 1f       	adc	r25, r25
     d1a:	0a 94       	dec	r0
     d1c:	e2 f7       	brpl	.-8      	; 0xd16 <hd44780_l_init+0x284>
     d1e:	80 95       	com	r24
     d20:	82 23       	and	r24, r18
     d22:	80 83       	st	Z, r24
     d24:	00 c0       	rjmp	.+0      	; 0xd26 <hd44780_l_init+0x294>
     d26:	00 c0       	rjmp	.+0      	; 0xd28 <hd44780_l_init+0x296>
		*(conf->db4_port) &= ~_BV(conf->db4_i);
		_hd44780_l_ec(conf);
	}
	
	/* Remaining process: */
	hd44780_l_fs(conf, conf->dl, n, f);
     d28:	24 2f       	mov	r18, r20
     d2a:	46 2f       	mov	r20, r22
     d2c:	6b a1       	ldd	r22, Y+35	; 0x23
     d2e:	ce 01       	movw	r24, r28
     d30:	8f de       	rcall	.-738    	; 0xa50 <hd44780_l_fs>
	hd44780_l_disp(conf, HD44780_L_DISP_D_OFF, HD44780_L_DISP_C_OFF, HD44780_L_DISP_B_OFF);
     d32:	20 e0       	ldi	r18, 0x00	; 0
     d34:	40 e0       	ldi	r20, 0x00	; 0
     d36:	60 e0       	ldi	r22, 0x00	; 0
     d38:	ce 01       	movw	r24, r28
     d3a:	75 de       	rcall	.-790    	; 0xa26 <hd44780_l_disp>
	hd44780_l_clear_disp(conf);
     d3c:	ce 01       	movw	r24, r28
     d3e:	56 de       	rcall	.-852    	; 0x9ec <hd44780_l_clear_disp>
	hd44780_l_ems(conf, id, s);
     d40:	40 2f       	mov	r20, r16
     d42:	61 2f       	mov	r22, r17
     d44:	ce 01       	movw	r24, r28
     d46:	5d de       	rcall	.-838    	; 0xa02 <hd44780_l_ems>
     d48:	df 91       	pop	r29
     d4a:	cf 91       	pop	r28
     d4c:	1f 91       	pop	r17
     d4e:	0f 91       	pop	r16
     d50:	08 95       	ret

00000d52 <SPI_Init_Master>:
void TXKdData()
{
	slaveSelect(CONTROLSLAVE);
	TXprotocol(KDSEND);
	masterTX(Kd);
	slaveSelect(NOSLAVE);
     d52:	88 eb       	ldi	r24, 0xB8	; 184
     d54:	84 b9       	out	0x04, r24	; 4
     d56:	53 98       	cbi	0x0a, 3	; 10
     d58:	85 b1       	in	r24, 0x05	; 5
     d5a:	88 61       	ori	r24, 0x18	; 24
     d5c:	85 b9       	out	0x05, r24	; 5
     d5e:	8c b5       	in	r24, 0x2c	; 44
     d60:	83 65       	ori	r24, 0x53	; 83
     d62:	8c bd       	out	0x2c, r24	; 44
     d64:	8c e3       	ldi	r24, 0x3C	; 60
     d66:	80 93 69 00 	sts	0x0069, r24
     d6a:	86 e0       	ldi	r24, 0x06	; 6
     d6c:	8d bb       	out	0x1d, r24	; 29
     d6e:	78 94       	sei
     d70:	14 bc       	out	0x24, r1	; 36
     d72:	84 e0       	ldi	r24, 0x04	; 4
     d74:	85 bd       	out	0x25, r24	; 37
     d76:	8a e7       	ldi	r24, 0x7A	; 122
     d78:	87 bd       	out	0x27, r24	; 39
     d7a:	8d e7       	ldi	r24, 0x7D	; 125
     d7c:	88 bd       	out	0x28, r24	; 40
     d7e:	16 bc       	out	0x26, r1	; 38
     d80:	08 95       	ret

00000d82 <masterTX>:
     d82:	cf 93       	push	r28
     d84:	df 93       	push	r29
     d86:	1f 92       	push	r1
     d88:	cd b7       	in	r28, 0x3d	; 61
     d8a:	de b7       	in	r29, 0x3e	; 62
     d8c:	89 83       	std	Y+1, r24	; 0x01
     d8e:	89 81       	ldd	r24, Y+1	; 0x01
     d90:	8e bd       	out	0x2e, r24	; 46
     d92:	0d b4       	in	r0, 0x2d	; 45
     d94:	07 fe       	sbrs	r0, 7
     d96:	fd cf       	rjmp	.-6      	; 0xd92 <masterTX+0x10>
     d98:	0f 90       	pop	r0
     d9a:	df 91       	pop	r29
     d9c:	cf 91       	pop	r28
     d9e:	08 95       	ret

00000da0 <masterRX>:
     da0:	cf 93       	push	r28
     da2:	df 93       	push	r29
     da4:	1f 92       	push	r1
     da6:	cd b7       	in	r28, 0x3d	; 61
     da8:	de b7       	in	r29, 0x3e	; 62
     daa:	89 83       	std	Y+1, r24	; 0x01
     dac:	89 81       	ldd	r24, Y+1	; 0x01
     dae:	8e bd       	out	0x2e, r24	; 46
     db0:	0d b4       	in	r0, 0x2d	; 45
     db2:	07 fe       	sbrs	r0, 7
     db4:	fd cf       	rjmp	.-6      	; 0xdb0 <masterRX+0x10>
     db6:	8e b5       	in	r24, 0x2e	; 46
     db8:	0f 90       	pop	r0
     dba:	df 91       	pop	r29
     dbc:	cf 91       	pop	r28
     dbe:	08 95       	ret

00000dc0 <slaveSelect>:
     dc0:	cf 93       	push	r28
     dc2:	df 93       	push	r29
     dc4:	1f 92       	push	r1
     dc6:	cd b7       	in	r28, 0x3d	; 61
     dc8:	de b7       	in	r29, 0x3e	; 62
     dca:	89 83       	std	Y+1, r24	; 0x01
     dcc:	89 81       	ldd	r24, Y+1	; 0x01
     dce:	8a 30       	cpi	r24, 0x0A	; 10
     dd0:	19 f4       	brne	.+6      	; 0xdd8 <slaveSelect+0x18>
     dd2:	2b 9a       	sbi	0x05, 3	; 5
     dd4:	2c 98       	cbi	0x05, 4	; 5
     dd6:	08 c0       	rjmp	.+16     	; 0xde8 <slaveSelect+0x28>
     dd8:	89 81       	ldd	r24, Y+1	; 0x01
     dda:	89 30       	cpi	r24, 0x09	; 9
     ddc:	19 f4       	brne	.+6      	; 0xde4 <slaveSelect+0x24>
     dde:	2c 9a       	sbi	0x05, 4	; 5
     de0:	2b 98       	cbi	0x05, 3	; 5
     de2:	02 c0       	rjmp	.+4      	; 0xde8 <slaveSelect+0x28>
     de4:	2c 9a       	sbi	0x05, 4	; 5
     de6:	2b 9a       	sbi	0x05, 3	; 5
     de8:	0f 90       	pop	r0
     dea:	df 91       	pop	r29
     dec:	cf 91       	pop	r28
     dee:	08 95       	ret

00000df0 <TXprotocol>:
     df0:	81 30       	cpi	r24, 0x01	; 1
     df2:	11 f4       	brne	.+4      	; 0xdf8 <TXprotocol+0x8>
     df4:	84 e8       	ldi	r24, 0x84	; 132
     df6:	c5 cf       	rjmp	.-118    	; 0xd82 <masterTX>
     df8:	83 30       	cpi	r24, 0x03	; 3
     dfa:	11 f4       	brne	.+4      	; 0xe00 <TXprotocol+0x10>
     dfc:	85 e8       	ldi	r24, 0x85	; 133
     dfe:	c1 cf       	rjmp	.-126    	; 0xd82 <masterTX>
     e00:	84 30       	cpi	r24, 0x04	; 4
     e02:	11 f4       	brne	.+4      	; 0xe08 <TXprotocol+0x18>
     e04:	86 e8       	ldi	r24, 0x86	; 134
     e06:	bd cf       	rjmp	.-134    	; 0xd82 <masterTX>
     e08:	82 30       	cpi	r24, 0x02	; 2
     e0a:	11 f4       	brne	.+4      	; 0xe10 <TXprotocol+0x20>
     e0c:	84 e0       	ldi	r24, 0x04	; 4
     e0e:	b9 cf       	rjmp	.-142    	; 0xd82 <masterTX>
     e10:	85 30       	cpi	r24, 0x05	; 5
     e12:	11 f4       	brne	.+4      	; 0xe18 <TXprotocol+0x28>
     e14:	87 e8       	ldi	r24, 0x87	; 135
     e16:	b5 cf       	rjmp	.-150    	; 0xd82 <masterTX>
     e18:	86 30       	cpi	r24, 0x06	; 6
     e1a:	11 f4       	brne	.+4      	; 0xe20 <TXprotocol+0x30>
     e1c:	8b e8       	ldi	r24, 0x8B	; 139
     e1e:	b1 cf       	rjmp	.-158    	; 0xd82 <masterTX>
     e20:	87 30       	cpi	r24, 0x07	; 7
     e22:	11 f4       	brne	.+4      	; 0xe28 <TXprotocol+0x38>
     e24:	8f e8       	ldi	r24, 0x8F	; 143
     e26:	ad cf       	rjmp	.-166    	; 0xd82 <masterTX>
     e28:	88 30       	cpi	r24, 0x08	; 8
     e2a:	11 f4       	brne	.+4      	; 0xe30 <TXprotocol+0x40>
     e2c:	8f e9       	ldi	r24, 0x9F	; 159
     e2e:	a9 cf       	rjmp	.-174    	; 0xd82 <masterTX>
     e30:	08 95       	ret

00000e32 <TXsensorData>:
     e32:	8a e0       	ldi	r24, 0x0A	; 10
     e34:	c5 df       	rcall	.-118    	; 0xdc0 <slaveSelect>
     e36:	81 e0       	ldi	r24, 0x01	; 1
     e38:	db df       	rcall	.-74     	; 0xdf0 <TXprotocol>
     e3a:	8b e0       	ldi	r24, 0x0B	; 11
     e3c:	c1 df       	rcall	.-126    	; 0xdc0 <slaveSelect>
     e3e:	8a e0       	ldi	r24, 0x0A	; 10
     e40:	bf df       	rcall	.-130    	; 0xdc0 <slaveSelect>
     e42:	80 91 f6 01 	lds	r24, 0x01F6
     e46:	9d cf       	rjmp	.-198    	; 0xd82 <masterTX>

00000e48 <RXsensorData>:
     e48:	82 e0       	ldi	r24, 0x02	; 2
     e4a:	80 93 25 02 	sts	0x0225, r24
     e4e:	89 e0       	ldi	r24, 0x09	; 9
     e50:	b7 df       	rcall	.-146    	; 0xdc0 <slaveSelect>
     e52:	82 e0       	ldi	r24, 0x02	; 2
     e54:	cd df       	rcall	.-102    	; 0xdf0 <TXprotocol>
     e56:	8b e0       	ldi	r24, 0x0B	; 11
     e58:	b3 cf       	rjmp	.-154    	; 0xdc0 <slaveSelect>

00000e5a <TXwheelData>:
     e5a:	8a e0       	ldi	r24, 0x0A	; 10
     e5c:	b1 df       	rcall	.-158    	; 0xdc0 <slaveSelect>
     e5e:	83 e0       	ldi	r24, 0x03	; 3
     e60:	c7 df       	rcall	.-114    	; 0xdf0 <TXprotocol>
     e62:	80 91 23 02 	lds	r24, 0x0223
     e66:	8d df       	rcall	.-230    	; 0xd82 <masterTX>
     e68:	8b e0       	ldi	r24, 0x0B	; 11
     e6a:	aa cf       	rjmp	.-172    	; 0xdc0 <slaveSelect>

00000e6c <TXarmData>:
     e6c:	8a e0       	ldi	r24, 0x0A	; 10
     e6e:	a8 df       	rcall	.-176    	; 0xdc0 <slaveSelect>
     e70:	84 e0       	ldi	r24, 0x04	; 4
     e72:	be df       	rcall	.-132    	; 0xdf0 <TXprotocol>
     e74:	80 91 f4 01 	lds	r24, 0x01F4
     e78:	84 cf       	rjmp	.-248    	; 0xd82 <masterTX>

00000e7a <TXKpData>:
     e7a:	8a e0       	ldi	r24, 0x0A	; 10
     e7c:	a1 df       	rcall	.-190    	; 0xdc0 <slaveSelect>
     e7e:	85 e0       	ldi	r24, 0x05	; 5
     e80:	b7 df       	rcall	.-146    	; 0xdf0 <TXprotocol>
     e82:	80 91 20 02 	lds	r24, 0x0220
     e86:	7d df       	rcall	.-262    	; 0xd82 <masterTX>
     e88:	8b e0       	ldi	r24, 0x0B	; 11
     e8a:	9a cf       	rjmp	.-204    	; 0xdc0 <slaveSelect>

00000e8c <TXDropItem>:
}

void TXDropItem()
{
	slaveSelect(CONTROLSLAVE);
     e8c:	8a e0       	ldi	r24, 0x0A	; 10
     e8e:	98 df       	rcall	.-208    	; 0xdc0 <slaveSelect>
	TXprotocol(DROPITEMSEND);
     e90:	87 e0       	ldi	r24, 0x07	; 7
     e92:	ae df       	rcall	.-164    	; 0xdf0 <TXprotocol>
	masterTX(stationRightSide);
     e94:	80 91 f8 01 	lds	r24, 0x01F8
     e98:	74 df       	rcall	.-280    	; 0xd82 <masterTX>
	slaveSelect(NOSLAVE);
     e9a:	8b e0       	ldi	r24, 0x0B	; 11
     e9c:	91 cf       	rjmp	.-222    	; 0xdc0 <slaveSelect>

00000e9e <TXCalibration>:
}

void TXCalibration()
{
	slaveSelect(SENSORSLAVE);
     e9e:	89 e0       	ldi	r24, 0x09	; 9
     ea0:	8f df       	rcall	.-226    	; 0xdc0 <slaveSelect>
	TXprotocol(CALIBRATION);
     ea2:	88 e0       	ldi	r24, 0x08	; 8
     ea4:	a5 df       	rcall	.-182    	; 0xdf0 <TXprotocol>
	slaveSelect(NOSLAVE);
     ea6:	8b e0       	ldi	r24, 0x0B	; 11
     ea8:	8b cf       	rjmp	.-234    	; 0xdc0 <slaveSelect>

00000eaa <waitForUserInputStartAbort>:
}

/*Called by pickupMode(). Waiting for the user to press either START PICKUP or ABORT PICKUP */
void waitForUserInputStartAbort()
{
	while (waitingForStartAbort == 0) {
     eaa:	80 91 f9 01 	lds	r24, 0x01F9
     eae:	88 23       	and	r24, r24
     eb0:	e1 f3       	breq	.-8      	; 0xeaa <waitForUserInputStartAbort>
		
	}
	waitingForStartAbort = 0;
     eb2:	10 92 f9 01 	sts	0x01F9, r1
     eb6:	08 95       	ret

00000eb8 <waitForUserInputEndPickup>:


/*Called by pickupMode(). Waiting for the user to finish pick up and press END PICKUP */
void waitForUserInputEndPickup()
{
	while (waitingForEndPickup == 0) {
     eb8:	80 91 21 02 	lds	r24, 0x0221
     ebc:	88 23       	and	r24, r24
     ebe:	e1 f3       	breq	.-8      	; 0xeb8 <waitForUserInputEndPickup>
		
	}
	waitingForEndPickup = 0;
     ec0:	10 92 21 02 	sts	0x0221, r1
     ec4:	08 95       	ret

00000ec6 <waitForFinishedDrop>:
}

void waitForFinishedDrop()
{
	while (finishedDrop == 0) {
     ec6:	80 91 ed 01 	lds	r24, 0x01ED
     eca:	88 23       	and	r24, r24
     ecc:	e1 f3       	breq	.-8      	; 0xec6 <waitForFinishedDrop>
		
	}
	finishedDrop = 0;
     ece:	10 92 ed 01 	sts	0x01ED, r1
     ed2:	08 95       	ret

00000ed4 <identifyNewStreamCatalogNumber>:
	return 0;
}


uint8_t identifyNewStreamCatalogNumber()
{
     ed4:	1f 93       	push	r17
     ed6:	cf 93       	push	r28
     ed8:	df 93       	push	r29
     eda:	00 d0       	rcall	.+0      	; 0xedc <identifyNewStreamCatalogNumber+0x8>
     edc:	cd b7       	in	r28, 0x3d	; 61
     ede:	de b7       	in	r29, 0x3e	; 62
	volatile uint8_t newStreamCatalogNumber = 0;
     ee0:	19 82       	std	Y+1, r1	; 0x01
	volatile uint8_t cntMatch = 0;
     ee2:	1a 82       	std	Y+2, r1	; 0x02
     ee4:	20 e0       	ldi	r18, 0x00	; 0
     ee6:	30 e0       	ldi	r19, 0x00	; 0
     ee8:	63 ed       	ldi	r22, 0xD3	; 211
     eea:	71 e0       	ldi	r23, 0x01	; 1
	}
	return 0;
}


uint8_t identifyNewStreamCatalogNumber()
     eec:	8d ed       	ldi	r24, 0xDD	; 221
     eee:	91 e0       	ldi	r25, 0x01	; 1
     ef0:	16 c0       	rjmp	.+44     	; 0xf1e <identifyNewStreamCatalogNumber+0x4a>
	
	for (uint8_t cntCatalog = 0; cntCatalog < 18; cntCatalog++)
	{
		for (uint8_t cntDigit = 1; cntDigit<11; cntDigit++)
		{
			if (catalog[cntCatalog][cntDigit-1] == newStream[cntDigit])
     ef2:	5d 91       	ld	r21, X+
     ef4:	41 91       	ld	r20, Z+
     ef6:	54 13       	cpse	r21, r20
     ef8:	09 c0       	rjmp	.+18     	; 0xf0c <identifyNewStreamCatalogNumber+0x38>
			{
				cntMatch++;
     efa:	4a 81       	ldd	r20, Y+2	; 0x02
     efc:	4f 5f       	subi	r20, 0xFF	; 255
     efe:	4a 83       	std	Y+2, r20	; 0x02
				
				if (cntMatch == 10){
     f00:	4a 81       	ldd	r20, Y+2	; 0x02
     f02:	4a 30       	cpi	r20, 0x0A	; 10
     f04:	21 f4       	brne	.+8      	; 0xf0e <identifyNewStreamCatalogNumber+0x3a>
					newStreamCatalogNumber = cntCatalog;
     f06:	19 83       	std	Y+1, r17	; 0x01
					cntMatch = 0;
     f08:	1a 82       	std	Y+2, r1	; 0x02
     f0a:	01 c0       	rjmp	.+2      	; 0xf0e <identifyNewStreamCatalogNumber+0x3a>
				}
			}
			else
			{
				cntMatch = 0;
     f0c:	1a 82       	std	Y+2, r1	; 0x02
	volatile uint8_t newStreamCatalogNumber = 0;
	volatile uint8_t cntMatch = 0;
	
	for (uint8_t cntCatalog = 0; cntCatalog < 18; cntCatalog++)
	{
		for (uint8_t cntDigit = 1; cntDigit<11; cntDigit++)
     f0e:	e8 17       	cp	r30, r24
     f10:	f9 07       	cpc	r31, r25
     f12:	79 f7       	brne	.-34     	; 0xef2 <identifyNewStreamCatalogNumber+0x1e>
     f14:	2f 5f       	subi	r18, 0xFF	; 255
     f16:	3f 4f       	sbci	r19, 0xFF	; 255
uint8_t identifyNewStreamCatalogNumber()
{
	volatile uint8_t newStreamCatalogNumber = 0;
	volatile uint8_t cntMatch = 0;
	
	for (uint8_t cntCatalog = 0; cntCatalog < 18; cntCatalog++)
     f18:	22 31       	cpi	r18, 0x12	; 18
     f1a:	31 05       	cpc	r19, r1
     f1c:	89 f0       	breq	.+34     	; 0xf40 <identifyNewStreamCatalogNumber+0x6c>
     f1e:	12 2f       	mov	r17, r18
	}
	return 0;
}


uint8_t identifyNewStreamCatalogNumber()
     f20:	d9 01       	movw	r26, r18
     f22:	aa 0f       	add	r26, r26
     f24:	bb 1f       	adc	r27, r27
     f26:	a9 01       	movw	r20, r18
     f28:	44 0f       	add	r20, r20
     f2a:	55 1f       	adc	r21, r21
     f2c:	44 0f       	add	r20, r20
     f2e:	55 1f       	adc	r21, r21
     f30:	44 0f       	add	r20, r20
     f32:	55 1f       	adc	r21, r21
     f34:	a4 0f       	add	r26, r20
     f36:	b5 1f       	adc	r27, r21
     f38:	a0 50       	subi	r26, 0x00	; 0
     f3a:	bf 4f       	sbci	r27, 0xFF	; 255
     f3c:	fb 01       	movw	r30, r22
     f3e:	d9 cf       	rjmp	.-78     	; 0xef2 <identifyNewStreamCatalogNumber+0x1e>
			{
				cntMatch = 0;
			}
		}
	}
	return newStreamCatalogNumber;
     f40:	89 81       	ldd	r24, Y+1	; 0x01
}
     f42:	0f 90       	pop	r0
     f44:	0f 90       	pop	r0
     f46:	df 91       	pop	r29
     f48:	cf 91       	pop	r28
     f4a:	1f 91       	pop	r17
     f4c:	08 95       	ret

00000f4e <itemInHistory>:
	}
	
}

/*Called by pickupMode(). */
_Bool itemInHistory(){ //lgg till funktion som drar bda i ett par ver samma kant
     f4e:	ff 92       	push	r15
     f50:	0f 93       	push	r16
     f52:	1f 93       	push	r17
     f54:	cf 93       	push	r28
     f56:	df 93       	push	r29
     f58:	c4 eb       	ldi	r28, 0xB4	; 180
     f5a:	d1 e0       	ldi	r29, 0x01	; 1
     f5c:	06 ec       	ldi	r16, 0xC6	; 198
     f5e:	11 e0       	ldi	r17, 0x01	; 1
	
	for (uint8_t cntCatalog = 0; cntCatalog < 18; cntCatalog ++)
	{
		if (history[cntCatalog] == identifyNewStreamCatalogNumber())
     f60:	f9 90       	ld	r15, Y+
     f62:	b8 df       	rcall	.-144    	; 0xed4 <identifyNewStreamCatalogNumber>
     f64:	f8 16       	cp	r15, r24
     f66:	29 f0       	breq	.+10     	; 0xf72 <itemInHistory+0x24>
}

/*Called by pickupMode(). */
_Bool itemInHistory(){ //lgg till funktion som drar bda i ett par ver samma kant
	
	for (uint8_t cntCatalog = 0; cntCatalog < 18; cntCatalog ++)
     f68:	c0 17       	cp	r28, r16
     f6a:	d1 07       	cpc	r29, r17
     f6c:	c9 f7       	brne	.-14     	; 0xf60 <itemInHistory+0x12>
			return 1;
		}
		
	}
	
	return 0; //If no
     f6e:	80 e0       	ldi	r24, 0x00	; 0
     f70:	01 c0       	rjmp	.+2      	; 0xf74 <itemInHistory+0x26>
	
	for (uint8_t cntCatalog = 0; cntCatalog < 18; cntCatalog ++)
	{
		if (history[cntCatalog] == identifyNewStreamCatalogNumber())
		{
			return 1;
     f72:	81 e0       	ldi	r24, 0x01	; 1
		}
		
	}
	
	return 0; //If no
}
     f74:	df 91       	pop	r29
     f76:	cf 91       	pop	r28
     f78:	1f 91       	pop	r17
     f7a:	0f 91       	pop	r16
     f7c:	ff 90       	pop	r15
     f7e:	08 95       	ret

00000f80 <identifyCargoCatalogNumber>:
	}
	return newStreamCatalogNumber;
}

uint8_t identifyCargoCatalogNumber()
{
     f80:	1f 93       	push	r17
     f82:	cf 93       	push	r28
     f84:	df 93       	push	r29
     f86:	00 d0       	rcall	.+0      	; 0xf88 <identifyCargoCatalogNumber+0x8>
     f88:	cd b7       	in	r28, 0x3d	; 61
     f8a:	de b7       	in	r29, 0x3e	; 62
	volatile uint8_t cargoCatalogNumber = 0;
     f8c:	19 82       	std	Y+1, r1	; 0x01
	volatile uint8_t cntMatch = 0;
     f8e:	1a 82       	std	Y+2, r1	; 0x02
     f90:	20 e0       	ldi	r18, 0x00	; 0
     f92:	30 e0       	ldi	r19, 0x00	; 0
     f94:	67 ec       	ldi	r22, 0xC7	; 199
     f96:	71 e0       	ldi	r23, 0x01	; 1
		}
	}
	return newStreamCatalogNumber;
}

uint8_t identifyCargoCatalogNumber()
     f98:	81 ed       	ldi	r24, 0xD1	; 209
     f9a:	91 e0       	ldi	r25, 0x01	; 1
     f9c:	16 c0       	rjmp	.+44     	; 0xfca <identifyCargoCatalogNumber+0x4a>
	
	for (uint8_t cntCatalog = 0; cntCatalog < 18; cntCatalog++)
	{
		for (uint8_t cntDigit = 1; cntDigit < 11; cntDigit++)
		{
			if (catalog[cntCatalog][cntDigit-1] == cargo[cntDigit])
     f9e:	5d 91       	ld	r21, X+
     fa0:	41 91       	ld	r20, Z+
     fa2:	54 13       	cpse	r21, r20
     fa4:	09 c0       	rjmp	.+18     	; 0xfb8 <identifyCargoCatalogNumber+0x38>
			{
				cntMatch++;
     fa6:	4a 81       	ldd	r20, Y+2	; 0x02
     fa8:	4f 5f       	subi	r20, 0xFF	; 255
     faa:	4a 83       	std	Y+2, r20	; 0x02
				
				if (cntMatch == 10){ 
     fac:	4a 81       	ldd	r20, Y+2	; 0x02
     fae:	4a 30       	cpi	r20, 0x0A	; 10
     fb0:	21 f4       	brne	.+8      	; 0xfba <identifyCargoCatalogNumber+0x3a>
					cargoCatalogNumber = cntCatalog;
     fb2:	19 83       	std	Y+1, r17	; 0x01
					cntMatch = 0;
     fb4:	1a 82       	std	Y+2, r1	; 0x02
     fb6:	01 c0       	rjmp	.+2      	; 0xfba <identifyCargoCatalogNumber+0x3a>
				}	
			}
			else
			{
				cntMatch = 0;
     fb8:	1a 82       	std	Y+2, r1	; 0x02
	volatile uint8_t cargoCatalogNumber = 0;
	volatile uint8_t cntMatch = 0;
	
	for (uint8_t cntCatalog = 0; cntCatalog < 18; cntCatalog++)
	{
		for (uint8_t cntDigit = 1; cntDigit < 11; cntDigit++)
     fba:	e8 17       	cp	r30, r24
     fbc:	f9 07       	cpc	r31, r25
     fbe:	79 f7       	brne	.-34     	; 0xf9e <identifyCargoCatalogNumber+0x1e>
     fc0:	2f 5f       	subi	r18, 0xFF	; 255
     fc2:	3f 4f       	sbci	r19, 0xFF	; 255
uint8_t identifyCargoCatalogNumber()
{
	volatile uint8_t cargoCatalogNumber = 0;
	volatile uint8_t cntMatch = 0;
	
	for (uint8_t cntCatalog = 0; cntCatalog < 18; cntCatalog++)
     fc4:	22 31       	cpi	r18, 0x12	; 18
     fc6:	31 05       	cpc	r19, r1
     fc8:	89 f0       	breq	.+34     	; 0xfec <identifyCargoCatalogNumber+0x6c>
     fca:	12 2f       	mov	r17, r18
		}
	}
	return newStreamCatalogNumber;
}

uint8_t identifyCargoCatalogNumber()
     fcc:	d9 01       	movw	r26, r18
     fce:	aa 0f       	add	r26, r26
     fd0:	bb 1f       	adc	r27, r27
     fd2:	a9 01       	movw	r20, r18
     fd4:	44 0f       	add	r20, r20
     fd6:	55 1f       	adc	r21, r21
     fd8:	44 0f       	add	r20, r20
     fda:	55 1f       	adc	r21, r21
     fdc:	44 0f       	add	r20, r20
     fde:	55 1f       	adc	r21, r21
     fe0:	a4 0f       	add	r26, r20
     fe2:	b5 1f       	adc	r27, r21
     fe4:	a0 50       	subi	r26, 0x00	; 0
     fe6:	bf 4f       	sbci	r27, 0xFF	; 255
     fe8:	fb 01       	movw	r30, r22
     fea:	d9 cf       	rjmp	.-78     	; 0xf9e <identifyCargoCatalogNumber+0x1e>
			{
				cntMatch = 0;
			}
		}	
	}
	return cargoCatalogNumber;
     fec:	89 81       	ldd	r24, Y+1	; 0x01
}
     fee:	0f 90       	pop	r0
     ff0:	0f 90       	pop	r0
     ff2:	df 91       	pop	r29
     ff4:	cf 91       	pop	r28
     ff6:	1f 91       	pop	r17
     ff8:	08 95       	ret

00000ffa <newStreamPairsWithCargo>:
	
	return 0; //If no
}

_Bool newStreamPairsWithCargo()
{
     ffa:	cf 93       	push	r28
     ffc:	df 93       	push	r29
     ffe:	00 d0       	rcall	.+0      	; 0x1000 <newStreamPairsWithCargo+0x6>
    1000:	cd b7       	in	r28, 0x3d	; 61
    1002:	de b7       	in	r29, 0x3e	; 62
	volatile uint8_t tmpCargo;
	volatile uint8_t tmpNewStream;
	
	 tmpCargo = identifyCargoCatalogNumber();
    1004:	bd df       	rcall	.-134    	; 0xf80 <identifyCargoCatalogNumber>
    1006:	89 83       	std	Y+1, r24	; 0x01
	 tmpNewStream = identifyNewStreamCatalogNumber();
    1008:	65 df       	rcall	.-310    	; 0xed4 <identifyNewStreamCatalogNumber>
    100a:	8a 83       	std	Y+2, r24	; 0x02
	 
	if ((tmpCargo % 2) == 0) // cargo catalog index is even (even catalog number implies start of new pair)
    100c:	89 81       	ldd	r24, Y+1	; 0x01
    100e:	80 fd       	sbrc	r24, 0
    1010:	0c c0       	rjmp	.+24     	; 0x102a <newStreamPairsWithCargo+0x30>
	{
		if (tmpNewStream == tmpCargo + 1)
    1012:	4a 81       	ldd	r20, Y+2	; 0x02
    1014:	29 81       	ldd	r18, Y+1	; 0x01
    1016:	50 e0       	ldi	r21, 0x00	; 0
    1018:	30 e0       	ldi	r19, 0x00	; 0
    101a:	2f 5f       	subi	r18, 0xFF	; 255
    101c:	3f 4f       	sbci	r19, 0xFF	; 255
    101e:	81 e0       	ldi	r24, 0x01	; 1
    1020:	42 17       	cp	r20, r18
    1022:	53 07       	cpc	r21, r19
    1024:	91 f0       	breq	.+36     	; 0x104a <newStreamPairsWithCargo+0x50>
    1026:	80 e0       	ldi	r24, 0x00	; 0
    1028:	10 c0       	rjmp	.+32     	; 0x104a <newStreamPairsWithCargo+0x50>
		{
			return 0;
		}
	}
	
	else if((tmpCargo % 2) == 1) //cargo catalog index is odd (odd catalog number implies end of new pair)
    102a:	89 81       	ldd	r24, Y+1	; 0x01
    102c:	80 ff       	sbrs	r24, 0
    102e:	0c c0       	rjmp	.+24     	; 0x1048 <newStreamPairsWithCargo+0x4e>
	{
		if (tmpNewStream == tmpCargo - 1)
    1030:	4a 81       	ldd	r20, Y+2	; 0x02
    1032:	29 81       	ldd	r18, Y+1	; 0x01
    1034:	50 e0       	ldi	r21, 0x00	; 0
    1036:	30 e0       	ldi	r19, 0x00	; 0
    1038:	21 50       	subi	r18, 0x01	; 1
    103a:	31 09       	sbc	r19, r1
    103c:	81 e0       	ldi	r24, 0x01	; 1
    103e:	42 17       	cp	r20, r18
    1040:	53 07       	cpc	r21, r19
    1042:	19 f0       	breq	.+6      	; 0x104a <newStreamPairsWithCargo+0x50>
    1044:	80 e0       	ldi	r24, 0x00	; 0
    1046:	01 c0       	rjmp	.+2      	; 0x104a <newStreamPairsWithCargo+0x50>
		else
		{
			return 0;
		}
	}
	return 0;
    1048:	80 e0       	ldi	r24, 0x00	; 0
}
    104a:	0f 90       	pop	r0
    104c:	0f 90       	pop	r0
    104e:	df 91       	pop	r29
    1050:	cf 91       	pop	r28
    1052:	08 95       	ret

00001054 <addPairToHistory>:
	{
		// Do nothing -> exit code -> leave station mode
	}
}

void addPairToHistory(){
    1054:	cf 93       	push	r28
	uint8_t tmp2Cargo = identifyCargoCatalogNumber();
    1056:	94 df       	rcall	.-216    	; 0xf80 <identifyCargoCatalogNumber>
	
	if (tmp2Cargo % 2 == 0) // Even indexes (cards)
    1058:	80 fd       	sbrc	r24, 0
    105a:	19 c0       	rjmp	.+50     	; 0x108e <addPairToHistory+0x3a>
	{
		history[historySize] = tmp2Cargo;
    105c:	90 91 22 02 	lds	r25, 0x0222
    1060:	e9 2f       	mov	r30, r25
    1062:	f0 e0       	ldi	r31, 0x00	; 0
    1064:	ec 54       	subi	r30, 0x4C	; 76
    1066:	fe 4f       	sbci	r31, 0xFE	; 254
    1068:	80 83       	st	Z, r24
		historySize++;
		history[historySize] = tmp2Cargo + 1;
    106a:	c8 2f       	mov	r28, r24
    106c:	cf 5f       	subi	r28, 0xFF	; 255
	uint8_t tmp2Cargo = identifyCargoCatalogNumber();
	
	if (tmp2Cargo % 2 == 0) // Even indexes (cards)
	{
		history[historySize] = tmp2Cargo;
		historySize++;
    106e:	e9 2f       	mov	r30, r25
    1070:	ef 5f       	subi	r30, 0xFF	; 255
		history[historySize] = tmp2Cargo + 1;
    1072:	f0 e0       	ldi	r31, 0x00	; 0
    1074:	ec 54       	subi	r30, 0x4C	; 76
    1076:	fe 4f       	sbci	r31, 0xFE	; 254
    1078:	c0 83       	st	Z, r28
		historySize++;
    107a:	9e 5f       	subi	r25, 0xFE	; 254
    107c:	90 93 22 02 	sts	0x0222, r25
		TXbluetoothInstr(HISTORYINSTR, tmp2Cargo);
    1080:	68 2f       	mov	r22, r24
    1082:	8a e0       	ldi	r24, 0x0A	; 10
    1084:	4e d8       	rcall	.-3940   	; 0x122 <TXbluetoothInstr>
		TXbluetoothInstr(HISTORYINSTR, tmp2Cargo+1);
    1086:	6c 2f       	mov	r22, r28
    1088:	8a e0       	ldi	r24, 0x0A	; 10
    108a:	4b d8       	rcall	.-3946   	; 0x122 <TXbluetoothInstr>
    108c:	18 c0       	rjmp	.+48     	; 0x10be <addPairToHistory+0x6a>
	}
	
	else if (tmp2Cargo % 2 == 1)
	{
		history[historySize] = tmp2Cargo;
    108e:	90 91 22 02 	lds	r25, 0x0222
    1092:	e9 2f       	mov	r30, r25
    1094:	f0 e0       	ldi	r31, 0x00	; 0
    1096:	ec 54       	subi	r30, 0x4C	; 76
    1098:	fe 4f       	sbci	r31, 0xFE	; 254
    109a:	80 83       	st	Z, r24
		historySize++;
		history[historySize] = tmp2Cargo - 1;
    109c:	c8 2f       	mov	r28, r24
    109e:	c1 50       	subi	r28, 0x01	; 1
	}
	
	else if (tmp2Cargo % 2 == 1)
	{
		history[historySize] = tmp2Cargo;
		historySize++;
    10a0:	e9 2f       	mov	r30, r25
    10a2:	ef 5f       	subi	r30, 0xFF	; 255
		history[historySize] = tmp2Cargo - 1;
    10a4:	f0 e0       	ldi	r31, 0x00	; 0
    10a6:	ec 54       	subi	r30, 0x4C	; 76
    10a8:	fe 4f       	sbci	r31, 0xFE	; 254
    10aa:	c0 83       	st	Z, r28
		historySize++;
    10ac:	9e 5f       	subi	r25, 0xFE	; 254
    10ae:	90 93 22 02 	sts	0x0222, r25
		TXbluetoothInstr(HISTORYINSTR, tmp2Cargo);
    10b2:	68 2f       	mov	r22, r24
    10b4:	8a e0       	ldi	r24, 0x0A	; 10
    10b6:	35 d8       	rcall	.-3990   	; 0x122 <TXbluetoothInstr>
		TXbluetoothInstr(HISTORYINSTR, tmp2Cargo-1);
    10b8:	6c 2f       	mov	r22, r28
    10ba:	8a e0       	ldi	r24, 0x0A	; 10
    10bc:	32 d8       	rcall	.-3996   	; 0x122 <TXbluetoothInstr>
	}
	
}
    10be:	cf 91       	pop	r28
    10c0:	08 95       	ret

000010c2 <powerRFID>:
	}
	return cargoCatalogNumber;
}

void powerRFID(_Bool power){
	if (power == 1)
    10c2:	88 23       	and	r24, r24
    10c4:	11 f0       	breq	.+4      	; 0x10ca <powerRFID+0x8>
	{
		PORTD &= ~(1<<PORTD5);
    10c6:	5d 98       	cbi	0x0b, 5	; 11
    10c8:	08 95       	ret
		//((Port on AVR connected to RFIDs "Enable") = LOW) => Power up byte reader
	}
	else
	{
		PORTD |= (1<<PORTD5);
    10ca:	5d 9a       	sbi	0x0b, 5	; 11
    10cc:	08 95       	ret

000010ce <printOnLCD>:
}

/*
Prints the entire RFID tag on the display.
*/
void printOnLCD(_Bool shipment){ //Eventuellt gra generisk om vi vill skicka in andra vrden n cargo
    10ce:	0f 93       	push	r16
    10d0:	1f 93       	push	r17
    10d2:	cf 93       	push	r28
    10d4:	df 93       	push	r29
    10d6:	c8 2f       	mov	r28, r24
	hd44780_l_clear_disp(&low_conf);
    10d8:	8a ef       	ldi	r24, 0xFA	; 250
    10da:	91 e0       	ldi	r25, 0x01	; 1
    10dc:	87 dc       	rcall	.-1778   	; 0x9ec <hd44780_l_clear_disp>
	
	if (shipment == 1)
    10de:	cc 23       	and	r28, r28
    10e0:	01 f1       	breq	.+64     	; 0x1122 <printOnLCD+0x54>
	{
		hd44780_l_write(&low_conf, 0x52);	//R
    10e2:	62 e5       	ldi	r22, 0x52	; 82
    10e4:	8a ef       	ldi	r24, 0xFA	; 250
    10e6:	91 e0       	ldi	r25, 0x01	; 1
    10e8:	c9 dc       	rcall	.-1646   	; 0xa7c <hd44780_l_write>
		hd44780_l_write(&low_conf, 0x46);	//F
    10ea:	66 e4       	ldi	r22, 0x46	; 70
    10ec:	8a ef       	ldi	r24, 0xFA	; 250
    10ee:	91 e0       	ldi	r25, 0x01	; 1
    10f0:	c5 dc       	rcall	.-1654   	; 0xa7c <hd44780_l_write>
		hd44780_l_write(&low_conf, 0x49);	//I
    10f2:	69 e4       	ldi	r22, 0x49	; 73
    10f4:	8a ef       	ldi	r24, 0xFA	; 250
    10f6:	91 e0       	ldi	r25, 0x01	; 1
    10f8:	c1 dc       	rcall	.-1662   	; 0xa7c <hd44780_l_write>
		hd44780_l_write(&low_conf, 0x44);	//D
    10fa:	64 e4       	ldi	r22, 0x44	; 68
    10fc:	8a ef       	ldi	r24, 0xFA	; 250
    10fe:	91 e0       	ldi	r25, 0x01	; 1
    1100:	bd dc       	rcall	.-1670   	; 0xa7c <hd44780_l_write>
		hd44780_l_write(&low_conf, 0x3A);	//:
    1102:	6a e3       	ldi	r22, 0x3A	; 58
    1104:	8a ef       	ldi	r24, 0xFA	; 250
    1106:	91 e0       	ldi	r25, 0x01	; 1
    1108:	b9 dc       	rcall	.-1678   	; 0xa7c <hd44780_l_write>
    110a:	c7 ec       	ldi	r28, 0xC7	; 199
    110c:	d1 e0       	ldi	r29, 0x01	; 1
}

/*
Prints the entire RFID tag on the display.
*/
void printOnLCD(_Bool shipment){ //Eventuellt gra generisk om vi vill skicka in andra vrden n cargo
    110e:	01 ed       	ldi	r16, 0xD1	; 209
    1110:	11 e0       	ldi	r17, 0x01	; 1
		hd44780_l_write(&low_conf, 0x3A);	//:

		
		for(int i = 1; i<11; i++)	//Prints the tag's ID bytes.
		{
			hd44780_l_write(&low_conf, cargo[i]);
    1112:	69 91       	ld	r22, Y+
    1114:	8a ef       	ldi	r24, 0xFA	; 250
    1116:	91 e0       	ldi	r25, 0x01	; 1
    1118:	b1 dc       	rcall	.-1694   	; 0xa7c <hd44780_l_write>
		hd44780_l_write(&low_conf, 0x49);	//I
		hd44780_l_write(&low_conf, 0x44);	//D
		hd44780_l_write(&low_conf, 0x3A);	//:

		
		for(int i = 1; i<11; i++)	//Prints the tag's ID bytes.
    111a:	c0 17       	cp	r28, r16
    111c:	d1 07       	cpc	r29, r17
    111e:	c9 f7       	brne	.-14     	; 0x1112 <printOnLCD+0x44>
    1120:	20 c0       	rjmp	.+64     	; 0x1162 <printOnLCD+0x94>
			hd44780_l_write(&low_conf, cargo[i]);
		}
	}
	else
	{
		hd44780_l_write(&low_conf, 0x4E);	//N
    1122:	6e e4       	ldi	r22, 0x4E	; 78
    1124:	8a ef       	ldi	r24, 0xFA	; 250
    1126:	91 e0       	ldi	r25, 0x01	; 1
    1128:	a9 dc       	rcall	.-1710   	; 0xa7c <hd44780_l_write>
		hd44780_l_write(&low_conf, 0x4F);	//O
    112a:	6f e4       	ldi	r22, 0x4F	; 79
    112c:	8a ef       	ldi	r24, 0xFA	; 250
    112e:	91 e0       	ldi	r25, 0x01	; 1
    1130:	a5 dc       	rcall	.-1718   	; 0xa7c <hd44780_l_write>
		hd44780_l_write(&low_conf, 0x20);	//
    1132:	60 e2       	ldi	r22, 0x20	; 32
    1134:	8a ef       	ldi	r24, 0xFA	; 250
    1136:	91 e0       	ldi	r25, 0x01	; 1
    1138:	a1 dc       	rcall	.-1726   	; 0xa7c <hd44780_l_write>
		
		hd44780_l_write(&low_conf, 0x43);	//C
    113a:	63 e4       	ldi	r22, 0x43	; 67
    113c:	8a ef       	ldi	r24, 0xFA	; 250
    113e:	91 e0       	ldi	r25, 0x01	; 1
    1140:	9d dc       	rcall	.-1734   	; 0xa7c <hd44780_l_write>
		hd44780_l_write(&low_conf, 0x41);	//A
    1142:	61 e4       	ldi	r22, 0x41	; 65
    1144:	8a ef       	ldi	r24, 0xFA	; 250
    1146:	91 e0       	ldi	r25, 0x01	; 1
    1148:	99 dc       	rcall	.-1742   	; 0xa7c <hd44780_l_write>
		hd44780_l_write(&low_conf, 0x52);	//R
    114a:	62 e5       	ldi	r22, 0x52	; 82
    114c:	8a ef       	ldi	r24, 0xFA	; 250
    114e:	91 e0       	ldi	r25, 0x01	; 1
    1150:	95 dc       	rcall	.-1750   	; 0xa7c <hd44780_l_write>
		hd44780_l_write(&low_conf, 0x47);	//G
    1152:	67 e4       	ldi	r22, 0x47	; 71
    1154:	8a ef       	ldi	r24, 0xFA	; 250
    1156:	91 e0       	ldi	r25, 0x01	; 1
    1158:	91 dc       	rcall	.-1758   	; 0xa7c <hd44780_l_write>
		hd44780_l_write(&low_conf, 0x4F);	//O
    115a:	6f e4       	ldi	r22, 0x4F	; 79
    115c:	8a ef       	ldi	r24, 0xFA	; 250
    115e:	91 e0       	ldi	r25, 0x01	; 1
    1160:	8d dc       	rcall	.-1766   	; 0xa7c <hd44780_l_write>

	}
	

}
    1162:	df 91       	pop	r29
    1164:	cf 91       	pop	r28
    1166:	1f 91       	pop	r17
    1168:	0f 91       	pop	r16
    116a:	08 95       	ret

0000116c <deliveryMode>:


/*Called by stationMode(). Enters if carrying object. */
void deliveryMode(){
	
	if (newStreamPairsWithCargo() == 1) //Checks if the station is the correct station to leave cargo
    116c:	46 df       	rcall	.-372    	; 0xffa <newStreamPairsWithCargo>
    116e:	88 23       	and	r24, r24
    1170:	71 f0       	breq	.+28     	; 0x118e <deliveryMode+0x22>
	{
		addPairToHistory();
    1172:	70 df       	rcall	.-288    	; 0x1054 <addPairToHistory>
		printOnLCD(0); //Prints "No Cargo" on LCD
    1174:	80 e0       	ldi	r24, 0x00	; 0
    1176:	ab df       	rcall	.-170    	; 0x10ce <printOnLCD>
		TXDropItem(stationRightSide); //1 = right side, 0 = left side
    1178:	80 91 f8 01 	lds	r24, 0x01F8
    117c:	90 e0       	ldi	r25, 0x00	; 0
    117e:	86 de       	rcall	.-756    	; 0xe8c <TXDropItem>
		waitForFinishedDrop();	
    1180:	a2 de       	rcall	.-700    	; 0xec6 <waitForFinishedDrop>
		carryItem = 0;
    1182:	10 92 ee 01 	sts	0x01EE, r1
		TXbluetoothInstr(CARGOINSTR, 32);
    1186:	60 e2       	ldi	r22, 0x20	; 32
    1188:	8b e0       	ldi	r24, 0x0B	; 11
    118a:	0c 94 91 00 	jmp	0x122	; 0x122 <TXbluetoothInstr>
    118e:	08 95       	ret

00001190 <pickUpMode>:
	finishedDrop = 0;
}

/*Called by stationMode(). Enters if not carrying object.*/
void pickUpMode(){
	if (itemInHistory() == 1) //checks if mission completed for this station
    1190:	de de       	rcall	.-580    	; 0xf4e <itemInHistory>
    1192:	81 11       	cpse	r24, r1
    1194:	24 c0       	rjmp	.+72     	; 0x11de <pickUpMode+0x4e>
	{
		// Do nothing -> exit code -> leave station mode
	}
	else
	{
		waitForUserInputStartAbort();
    1196:	89 de       	rcall	.-750    	; 0xeaa <waitForUserInputStartAbort>
		
		if (pickUpItem == 1)
    1198:	80 91 f2 01 	lds	r24, 0x01F2
    119c:	88 23       	and	r24, r24
    119e:	d1 f0       	breq	.+52     	; 0x11d4 <pickUpMode+0x44>
    11a0:	e2 ed       	ldi	r30, 0xD2	; 210
    11a2:	f1 e0       	ldi	r31, 0x01	; 1
    11a4:	a6 ec       	ldi	r26, 0xC6	; 198
    11a6:	b1 e0       	ldi	r27, 0x01	; 1
	}
	finishedDrop = 0;
}

/*Called by stationMode(). Enters if not carrying object.*/
void pickUpMode(){
    11a8:	8e ed       	ldi	r24, 0xDE	; 222
    11aa:	91 e0       	ldi	r25, 0x01	; 1
		if (pickUpItem == 1)
		{
			for (uint8_t cntDigit = 0; cntDigit < 12; cntDigit++) //Storing RFID tag in cargo
			{
				
				cargo[cntDigit] = newStream[cntDigit];
    11ac:	21 91       	ld	r18, Z+
    11ae:	2d 93       	st	X+, r18
	{
		waitForUserInputStartAbort();
		
		if (pickUpItem == 1)
		{
			for (uint8_t cntDigit = 0; cntDigit < 12; cntDigit++) //Storing RFID tag in cargo
    11b0:	e8 17       	cp	r30, r24
    11b2:	f9 07       	cpc	r31, r25
    11b4:	d9 f7       	brne	.-10     	; 0x11ac <pickUpMode+0x1c>
			{
				
				cargo[cntDigit] = newStream[cntDigit];
			}
			carryItem = 1; // Shows that the robot is carrying an object
    11b6:	81 e0       	ldi	r24, 0x01	; 1
    11b8:	80 93 ee 01 	sts	0x01EE, r24
			printOnLCD(1); //Printing cargo RFID tag on display
    11bc:	88 df       	rcall	.-240    	; 0x10ce <printOnLCD>
			TXbluetoothInstr(STATIONINSTR, identifyCargoCatalogNumber());
    11be:	e0 de       	rcall	.-576    	; 0xf80 <identifyCargoCatalogNumber>
    11c0:	68 2f       	mov	r22, r24
    11c2:	89 e0       	ldi	r24, 0x09	; 9
    11c4:	0e 94 91 00 	call	0x122	; 0x122 <TXbluetoothInstr>
			TXbluetoothInstr(CARGOINSTR, identifyCargoCatalogNumber());
    11c8:	db de       	rcall	.-586    	; 0xf80 <identifyCargoCatalogNumber>
    11ca:	68 2f       	mov	r22, r24
    11cc:	8b e0       	ldi	r24, 0x0B	; 11
    11ce:	0e 94 91 00 	call	0x122	; 0x122 <TXbluetoothInstr>
			waitForUserInputEndPickup(); // the item has been pickup up and leave stationMode()
    11d2:	72 ce       	rjmp	.-796    	; 0xeb8 <waitForUserInputEndPickup>
		}
		else
		{
			TXbluetoothInstr(STATIONINSTR, identifyNewStreamCatalogNumber());
    11d4:	7f de       	rcall	.-770    	; 0xed4 <identifyNewStreamCatalogNumber>
    11d6:	68 2f       	mov	r22, r24
    11d8:	89 e0       	ldi	r24, 0x09	; 9
    11da:	0c 94 91 00 	jmp	0x122	; 0x122 <TXbluetoothInstr>
    11de:	08 95       	ret

000011e0 <stationMode>:


/*Called by transportMode(). Reads rfid tag and enters pickupMode() or deliveryMode() if the robot is carrying object or not */
void stationMode(){
	
	powerRFID(1);
    11e0:	81 e0       	ldi	r24, 0x01	; 1
    11e2:	6f df       	rcall	.-290    	; 0x10c2 <powerRFID>
	
	while (streamFilled == 0)//Do nothing and wait for interupts -> do not leave loop unitil entire newStream is filled;
    11e4:	06 c0       	rjmp	.+12     	; 0x11f2 <stationMode+0x12>
	{
		if(stationModeEnable == 0)//Check if we have entered manualmode
    11e6:	80 91 ea 01 	lds	r24, 0x01EA
    11ea:	81 11       	cpse	r24, r1
    11ec:	02 c0       	rjmp	.+4      	; 0x11f2 <stationMode+0x12>
		{
			powerRFID(0);
    11ee:	69 df       	rcall	.-302    	; 0x10c2 <powerRFID>
			break;
    11f0:	04 c0       	rjmp	.+8      	; 0x11fa <stationMode+0x1a>
/*Called by transportMode(). Reads rfid tag and enters pickupMode() or deliveryMode() if the robot is carrying object or not */
void stationMode(){
	
	powerRFID(1);
	
	while (streamFilled == 0)//Do nothing and wait for interupts -> do not leave loop unitil entire newStream is filled;
    11f2:	80 91 f1 01 	lds	r24, 0x01F1
    11f6:	88 23       	and	r24, r24
    11f8:	b1 f3       	breq	.-20     	; 0x11e6 <stationMode+0x6>
		{
			powerRFID(0);
			break;
		}
	}
	streamFilled = 0;
    11fa:	10 92 f1 01 	sts	0x01F1, r1
	if(stationModeEnable == 1)
    11fe:	80 91 ea 01 	lds	r24, 0x01EA
    1202:	88 23       	and	r24, r24
    1204:	51 f0       	breq	.+20     	; 0x121a <stationMode+0x3a>
	{
		if (carryItem == 0)
    1206:	80 91 ee 01 	lds	r24, 0x01EE
    120a:	81 11       	cpse	r24, r1
    120c:	02 c0       	rjmp	.+4      	; 0x1212 <stationMode+0x32>
		{
			pickUpMode();
    120e:	c0 df       	rcall	.-128    	; 0x1190 <pickUpMode>
    1210:	01 c0       	rjmp	.+2      	; 0x1214 <stationMode+0x34>
		}
		else
		{
			deliveryMode();
    1212:	ac df       	rcall	.-168    	; 0x116c <deliveryMode>
		}
		TIMSK0 = 0x06;
    1214:	86 e0       	ldi	r24, 0x06	; 6
    1216:	80 93 6e 00 	sts	0x006E, r24
	}
	stationModeEnable = 0;
    121a:	10 92 ea 01 	sts	0x01EA, r1
    121e:	08 95       	ret

00001220 <setupRFID>:
	

}

void setupRFID(){
	UCSR1B |= (1<<RXEN1) | (1 << RXCIE1); //Enable RX1 and the RX complete interrupt
    1220:	e9 ec       	ldi	r30, 0xC9	; 201
    1222:	f0 e0       	ldi	r31, 0x00	; 0
    1224:	80 81       	ld	r24, Z
    1226:	80 69       	ori	r24, 0x90	; 144
    1228:	80 83       	st	Z, r24
	UCSR1C |= (1 << UCSZ11)|(1 << UCSZ10); //set data length to 8-bit;
    122a:	ea ec       	ldi	r30, 0xCA	; 202
    122c:	f0 e0       	ldi	r31, 0x00	; 0
    122e:	80 81       	ld	r24, Z
    1230:	86 60       	ori	r24, 0x06	; 6
    1232:	80 83       	st	Z, r24
	UBRR1H = (383 >> 8);
    1234:	81 e0       	ldi	r24, 0x01	; 1
    1236:	80 93 cd 00 	sts	0x00CD, r24
	UBRR1L = 0b01111111; //Sets baudvalue in AVR to 383, which gives baude rate 2400. baudvalue = (Fcpu/baudrate*16)-1
    123a:	8f e7       	ldi	r24, 0x7F	; 127
    123c:	80 93 cc 00 	sts	0x00CC, r24
	DDRD |= (1<<DDD5);
    1240:	55 9a       	sbi	0x0a, 5	; 10
	PORTD |= (1<<PORTD5);
    1242:	5d 9a       	sbi	0x0b, 5	; 11
    1244:	08 95       	ret

00001246 <setupWarehouse>:
}

void setupWarehouse(){
	streamFilled = 0;
    1246:	10 92 f1 01 	sts	0x01F1, r1
	carryItem = 0;
    124a:	10 92 ee 01 	sts	0x01EE, r1
	pickUpItem = 0;
    124e:	10 92 f2 01 	sts	0x01F2, r1
	waitingForStartAbort = 0;
    1252:	10 92 f9 01 	sts	0x01F9, r1
	waitingForEndPickup = 0;
    1256:	10 92 21 02 	sts	0x0221, r1
	stationModeEnable = 0;
    125a:	10 92 ea 01 	sts	0x01EA, r1
	digit = 0;
    125e:	10 92 df 01 	sts	0x01DF, r1
	historySize = 0;
    1262:	10 92 22 02 	sts	0x0222, r1
	finishedDrop = 0;
    1266:	10 92 ed 01 	sts	0x01ED, r1
    126a:	08 95       	ret

0000126c <setupLCD>:
}

void setupLCD(){
    126c:	0f 93       	push	r16
	// setting I/O configuration for pins
	DDRA = 0xFF; //data outputs to the LCD
    126e:	8f ef       	ldi	r24, 0xFF	; 255
    1270:	81 b9       	out	0x01, r24	; 1
	DDRB |= (1 << DDB1)|(1 << DDB0); //rs, rw and en are outputs
    1272:	84 b1       	in	r24, 0x04	; 4
    1274:	83 60       	ori	r24, 0x03	; 3
    1276:	84 b9       	out	0x04, r24	; 4
	DDRC |=	(1<< DDC6);
    1278:	3e 9a       	sbi	0x07, 6	; 7
	// setting pin numbers and which ports on the LCD the ports on the AVR are hooked up to
	low_conf.rs_i = 1;
    127a:	21 e0       	ldi	r18, 0x01	; 1
    127c:	20 93 fa 01 	sts	0x01FA, r18
	low_conf.rw_i = 0;
    1280:	10 92 fb 01 	sts	0x01FB, r1
	low_conf.en_i = 6;
    1284:	86 e0       	ldi	r24, 0x06	; 6
    1286:	80 93 fc 01 	sts	0x01FC, r24
	
	low_conf.db7_i = 7;
    128a:	97 e0       	ldi	r25, 0x07	; 7
    128c:	90 93 fd 01 	sts	0x01FD, r25
	low_conf.db6_i = 6;
    1290:	80 93 fe 01 	sts	0x01FE, r24
	low_conf.db5_i = 5;
    1294:	85 e0       	ldi	r24, 0x05	; 5
    1296:	80 93 ff 01 	sts	0x01FF, r24
	low_conf.db4_i = 4;
    129a:	84 e0       	ldi	r24, 0x04	; 4
    129c:	80 93 00 02 	sts	0x0200, r24
	low_conf.db3_i = 3;
    12a0:	83 e0       	ldi	r24, 0x03	; 3
    12a2:	80 93 01 02 	sts	0x0201, r24
	low_conf.db2_i = 2;
    12a6:	82 e0       	ldi	r24, 0x02	; 2
    12a8:	80 93 02 02 	sts	0x0202, r24
	low_conf.db1_i = 1;
    12ac:	20 93 03 02 	sts	0x0203, r18
	low_conf.db0_i = 0;
    12b0:	10 92 04 02 	sts	0x0204, r1
	low_conf.rs_port = &PORTB;
    12b4:	85 e2       	ldi	r24, 0x25	; 37
    12b6:	90 e0       	ldi	r25, 0x00	; 0
    12b8:	90 93 06 02 	sts	0x0206, r25
    12bc:	80 93 05 02 	sts	0x0205, r24
	low_conf.rw_port = &PORTB;
    12c0:	90 93 08 02 	sts	0x0208, r25
    12c4:	80 93 07 02 	sts	0x0207, r24
	low_conf.en_port = &PORTC;
    12c8:	88 e2       	ldi	r24, 0x28	; 40
    12ca:	90 e0       	ldi	r25, 0x00	; 0
    12cc:	90 93 0a 02 	sts	0x020A, r25
    12d0:	80 93 09 02 	sts	0x0209, r24
	low_conf.db7_port = &PORTA;
    12d4:	82 e2       	ldi	r24, 0x22	; 34
    12d6:	90 e0       	ldi	r25, 0x00	; 0
    12d8:	90 93 0c 02 	sts	0x020C, r25
    12dc:	80 93 0b 02 	sts	0x020B, r24
	low_conf.db6_port = &PORTA;
    12e0:	90 93 0e 02 	sts	0x020E, r25
    12e4:	80 93 0d 02 	sts	0x020D, r24
	low_conf.db5_port = &PORTA;
    12e8:	90 93 10 02 	sts	0x0210, r25
    12ec:	80 93 0f 02 	sts	0x020F, r24
	low_conf.db4_port = &PORTA;
    12f0:	90 93 12 02 	sts	0x0212, r25
    12f4:	80 93 11 02 	sts	0x0211, r24
	low_conf.db3_port = &PORTA;
    12f8:	90 93 14 02 	sts	0x0214, r25
    12fc:	80 93 13 02 	sts	0x0213, r24
	low_conf.db2_port = &PORTA;
    1300:	90 93 16 02 	sts	0x0216, r25
    1304:	80 93 15 02 	sts	0x0215, r24
	low_conf.db1_port = &PORTA;
    1308:	90 93 18 02 	sts	0x0218, r25
    130c:	80 93 17 02 	sts	0x0217, r24
	low_conf.db0_port = &PORTA;
    1310:	90 93 1a 02 	sts	0x021A, r25
    1314:	80 93 19 02 	sts	0x0219, r24
	low_conf.line1_base_addr = 0x00;
    1318:	10 92 1b 02 	sts	0x021B, r1
	low_conf.line2_base_addr = 0x40;
    131c:	80 e4       	ldi	r24, 0x40	; 64
    131e:	80 93 1c 02 	sts	0x021C, r24
	low_conf.dl = HD44780_L_FS_DL_8BIT;
    1322:	20 93 1d 02 	sts	0x021D, r18
	hd44780_l_init(&low_conf, HD44780_L_FS_N_DUAL, HD44780_L_FS_F_58, HD44780_L_EMS_ID_INC, HD44780_L_EMS_S_OFF);
    1326:	00 e0       	ldi	r16, 0x00	; 0
    1328:	40 e0       	ldi	r20, 0x00	; 0
    132a:	61 e0       	ldi	r22, 0x01	; 1
    132c:	8a ef       	ldi	r24, 0xFA	; 250
    132e:	91 e0       	ldi	r25, 0x01	; 1
    1330:	b0 db       	rcall	.-2208   	; 0xa92 <hd44780_l_init>
	hd44780_l_disp(&low_conf, HD44780_L_DISP_D_ON, HD44780_L_DISP_C_OFF, HD44780_L_DISP_B_OFF);
    1332:	20 e0       	ldi	r18, 0x00	; 0
    1334:	40 e0       	ldi	r20, 0x00	; 0
    1336:	61 e0       	ldi	r22, 0x01	; 1
    1338:	8a ef       	ldi	r24, 0xFA	; 250
    133a:	91 e0       	ldi	r25, 0x01	; 1
    133c:	74 db       	rcall	.-2328   	; 0xa26 <hd44780_l_disp>
	hd44780_l_clear_disp(&low_conf);
    133e:	8a ef       	ldi	r24, 0xFA	; 250
    1340:	91 e0       	ldi	r25, 0x01	; 1
    1342:	54 db       	rcall	.-2392   	; 0x9ec <hd44780_l_clear_disp>
}
    1344:	0f 91       	pop	r16
    1346:	08 95       	ret

00001348 <_exit>:
    1348:	f8 94       	cli

0000134a <__stop_program>:
    134a:	ff cf       	rjmp	.-2      	; 0x134a <__stop_program>
