
Communication_Module.elf:     file format elf32-avr

Sections:
Idx Name          Size      VMA       LMA       File off  Algn
  0 .data         0000003c  00800100  0000109a  0000112e  2**0
                  CONTENTS, ALLOC, LOAD, DATA
  1 .text         0000109a  00000000  00000000  00000094  2**1
                  CONTENTS, ALLOC, LOAD, READONLY, CODE
  2 .bss          0000004b  0080013c  0080013c  0000116a  2**0
                  ALLOC
  3 .stab         000006cc  00000000  00000000  0000116c  2**2
                  CONTENTS, READONLY, DEBUGGING
  4 .stabstr      00000097  00000000  00000000  00001838  2**0
                  CONTENTS, READONLY, DEBUGGING
  5 .comment      0000002f  00000000  00000000  000018cf  2**0
                  CONTENTS, READONLY
  6 .debug_aranges 000001e8  00000000  00000000  000018fe  2**0
                  CONTENTS, READONLY, DEBUGGING
  7 .debug_info   00002e42  00000000  00000000  00001ae6  2**0
                  CONTENTS, READONLY, DEBUGGING
  8 .debug_abbrev 00000802  00000000  00000000  00004928  2**0
                  CONTENTS, READONLY, DEBUGGING
  9 .debug_line   00001384  00000000  00000000  0000512a  2**0
                  CONTENTS, READONLY, DEBUGGING
 10 .debug_frame  00000604  00000000  00000000  000064b0  2**2
                  CONTENTS, READONLY, DEBUGGING
 11 .debug_str    000006be  00000000  00000000  00006ab4  2**0
                  CONTENTS, READONLY, DEBUGGING
 12 .debug_loc    00001b90  00000000  00000000  00007172  2**0
                  CONTENTS, READONLY, DEBUGGING
 13 .debug_ranges 000001e8  00000000  00000000  00008d02  2**0
                  CONTENTS, READONLY, DEBUGGING

Disassembly of section .text:

00000000 <__vectors>:
       0:	45 c0       	rjmp	.+138    	; 0x8c <__ctors_end>
       2:	00 00       	nop
       4:	60 c0       	rjmp	.+192    	; 0xc6 <__bad_interrupt>
       6:	00 00       	nop
       8:	8b c0       	rjmp	.+278    	; 0x120 <__vector_2>
       a:	00 00       	nop
       c:	dc c0       	rjmp	.+440    	; 0x1c6 <__vector_3>
       e:	00 00       	nop
      10:	5a c0       	rjmp	.+180    	; 0xc6 <__bad_interrupt>
      12:	00 00       	nop
      14:	58 c0       	rjmp	.+176    	; 0xc6 <__bad_interrupt>
      16:	00 00       	nop
      18:	56 c0       	rjmp	.+172    	; 0xc6 <__bad_interrupt>
      1a:	00 00       	nop
      1c:	54 c0       	rjmp	.+168    	; 0xc6 <__bad_interrupt>
      1e:	00 00       	nop
      20:	52 c0       	rjmp	.+164    	; 0xc6 <__bad_interrupt>
      22:	00 00       	nop
      24:	50 c0       	rjmp	.+160    	; 0xc6 <__bad_interrupt>
      26:	00 00       	nop
      28:	4e c0       	rjmp	.+156    	; 0xc6 <__bad_interrupt>
      2a:	00 00       	nop
      2c:	4c c0       	rjmp	.+152    	; 0xc6 <__bad_interrupt>
      2e:	00 00       	nop
      30:	4a c0       	rjmp	.+148    	; 0xc6 <__bad_interrupt>
      32:	00 00       	nop
      34:	48 c0       	rjmp	.+144    	; 0xc6 <__bad_interrupt>
      36:	00 00       	nop
      38:	46 c0       	rjmp	.+140    	; 0xc6 <__bad_interrupt>
      3a:	00 00       	nop
      3c:	44 c0       	rjmp	.+136    	; 0xc6 <__bad_interrupt>
      3e:	00 00       	nop
      40:	fc c0       	rjmp	.+504    	; 0x23a <__vector_16>
      42:	00 00       	nop
      44:	25 c1       	rjmp	.+586    	; 0x290 <__vector_17>
      46:	00 00       	nop
      48:	3e c0       	rjmp	.+124    	; 0xc6 <__bad_interrupt>
      4a:	00 00       	nop
      4c:	3c c0       	rjmp	.+120    	; 0xc6 <__bad_interrupt>
      4e:	00 00       	nop
      50:	4d c1       	rjmp	.+666    	; 0x2ec <__vector_20>
      52:	00 00       	nop
      54:	38 c0       	rjmp	.+112    	; 0xc6 <__bad_interrupt>
      56:	00 00       	nop
      58:	36 c0       	rjmp	.+108    	; 0xc6 <__bad_interrupt>
      5a:	00 00       	nop
      5c:	34 c0       	rjmp	.+104    	; 0xc6 <__bad_interrupt>
      5e:	00 00       	nop
      60:	32 c0       	rjmp	.+100    	; 0xc6 <__bad_interrupt>
      62:	00 00       	nop
      64:	30 c0       	rjmp	.+96     	; 0xc6 <__bad_interrupt>
      66:	00 00       	nop
      68:	2e c0       	rjmp	.+92     	; 0xc6 <__bad_interrupt>
      6a:	00 00       	nop
      6c:	2c c0       	rjmp	.+88     	; 0xc6 <__bad_interrupt>
      6e:	00 00       	nop
      70:	97 c1       	rjmp	.+814    	; 0x3a0 <__vector_28>
      72:	00 00       	nop
      74:	28 c0       	rjmp	.+80     	; 0xc6 <__bad_interrupt>
      76:	00 00       	nop
      78:	26 c0       	rjmp	.+76     	; 0xc6 <__bad_interrupt>
      7a:	00 00       	nop
      7c:	24 c0       	rjmp	.+72     	; 0xc6 <__bad_interrupt>
      7e:	00 00       	nop
      80:	22 c0       	rjmp	.+68     	; 0xc6 <__bad_interrupt>
      82:	00 00       	nop
      84:	20 c0       	rjmp	.+64     	; 0xc6 <__bad_interrupt>
      86:	00 00       	nop
      88:	1e c0       	rjmp	.+60     	; 0xc6 <__bad_interrupt>
	...

0000008c <__ctors_end>:
      8c:	11 24       	eor	r1, r1
      8e:	1f be       	out	0x3f, r1	; 63
      90:	cf ef       	ldi	r28, 0xFF	; 255
      92:	d0 e4       	ldi	r29, 0x40	; 64
      94:	de bf       	out	0x3e, r29	; 62
      96:	cd bf       	out	0x3d, r28	; 61

00000098 <__do_copy_data>:
      98:	11 e0       	ldi	r17, 0x01	; 1
      9a:	a0 e0       	ldi	r26, 0x00	; 0
      9c:	b1 e0       	ldi	r27, 0x01	; 1
      9e:	ea e9       	ldi	r30, 0x9A	; 154
      a0:	f0 e1       	ldi	r31, 0x10	; 16
      a2:	00 e0       	ldi	r16, 0x00	; 0
      a4:	0b bf       	out	0x3b, r16	; 59
      a6:	02 c0       	rjmp	.+4      	; 0xac <__do_copy_data+0x14>
      a8:	07 90       	elpm	r0, Z+
      aa:	0d 92       	st	X+, r0
      ac:	ac 33       	cpi	r26, 0x3C	; 60
      ae:	b1 07       	cpc	r27, r17
      b0:	d9 f7       	brne	.-10     	; 0xa8 <__do_copy_data+0x10>

000000b2 <__do_clear_bss>:
      b2:	21 e0       	ldi	r18, 0x01	; 1
      b4:	ac e3       	ldi	r26, 0x3C	; 60
      b6:	b1 e0       	ldi	r27, 0x01	; 1
      b8:	01 c0       	rjmp	.+2      	; 0xbc <.do_clear_bss_start>

000000ba <.do_clear_bss_loop>:
      ba:	1d 92       	st	X+, r1

000000bc <.do_clear_bss_start>:
      bc:	a7 38       	cpi	r26, 0x87	; 135
      be:	b2 07       	cpc	r27, r18
      c0:	e1 f7       	brne	.-8      	; 0xba <.do_clear_bss_loop>
      c2:	aa d1       	rcall	.+852    	; 0x418 <main>
      c4:	e8 c7       	rjmp	.+4048   	; 0x1096 <_exit>

000000c6 <__bad_interrupt>:
      c6:	9c cf       	rjmp	.-200    	; 0x0 <__vectors>

000000c8 <handleData>:
#include "Master_communication.h"


void handleData(uint8_t temp)
{
	switch(temp) {
      c8:	82 30       	cpi	r24, 0x02	; 2
      ca:	49 f0       	breq	.+18     	; 0xde <handleData+0x16>
      cc:	83 30       	cpi	r24, 0x03	; 3
      ce:	59 f0       	breq	.+22     	; 0xe6 <handleData+0x1e>
      d0:	81 30       	cpi	r24, 0x01	; 1
      d2:	71 f4       	brne	.+28     	; 0xf0 <handleData+0x28>
		case 0x01: //START PICKUP button pressed
		pickUpItem = 1;
      d4:	80 93 53 01 	sts	0x0153, r24
		waitingForStartAbort = 1;
      d8:	80 93 58 01 	sts	0x0158, r24
		break;
      dc:	08 95       	ret
		case 0x02: //END PICKUP button pressed
		waitingForEndPickup = 1;
      de:	81 e0       	ldi	r24, 0x01	; 1
      e0:	80 93 82 01 	sts	0x0182, r24
		break;
      e4:	08 95       	ret
		case 0x03: //ABORT PICKUP button pressed
		pickUpItem = 0;
      e6:	10 92 53 01 	sts	0x0153, r1
		waitingForStartAbort = 1;
      ea:	81 e0       	ldi	r24, 0x01	; 1
      ec:	80 93 58 01 	sts	0x0158, r24
      f0:	08 95       	ret

000000f2 <bluetoothTX>:
}

void bluetoothTX(uint8_t txdata) {
	
	/* Wait for empty transmit buffer */
	while ( !( UCSR0A & (1<<UDRE0)) );
      f2:	e0 ec       	ldi	r30, 0xC0	; 192
      f4:	f0 e0       	ldi	r31, 0x00	; 0
      f6:	90 81       	ld	r25, Z
      f8:	95 ff       	sbrs	r25, 5
      fa:	fd cf       	rjmp	.-6      	; 0xf6 <bluetoothTX+0x4>
	
	/* Put data into buffer, sends the data */
	UDR0 = txdata;
      fc:	80 93 c6 00 	sts	0x00C6, r24
     100:	08 95       	ret

00000102 <setupBluetoothRXTX>:
}

void setupBluetoothRXTX()
{
	waiting_for_instruction = 1;
     102:	81 e0       	ldi	r24, 0x01	; 1
     104:	80 93 7e 01 	sts	0x017E, r24
	UCSR0B = (1<<RXEN0) | (1<<TXEN0) | (1 << RXCIE0); //Enable RX0, TX0 and RX complete interrupt
     108:	88 e9       	ldi	r24, 0x98	; 152
     10a:	80 93 c1 00 	sts	0x00C1, r24
	UCSR0C = (1 << UCSZ01) | (1 << UCSZ00); //set data length to 8-bit;
     10e:	86 e0       	ldi	r24, 0x06	; 6
     110:	80 93 c2 00 	sts	0x00C2, r24
	UBRR0H = 0x00;
     114:	10 92 c5 00 	sts	0x00C5, r1
	UBRR0L = 0x07; //Sets baudvalue in AVR to 7, which gives baude rate 115200. baudvalue = (Fcpu/baudrate*16)-1	
     118:	87 e0       	ldi	r24, 0x07	; 7
     11a:	80 93 c4 00 	sts	0x00C4, r24
     11e:	08 95       	ret

00000120 <__vector_2>:
#include "Bluetooth.h"
#include "warehouseMode.h"
#include "hd44780_low.h"

ISR(INT1_vect)			//Receive function. Data is transmitted from the sensor slave
{
     120:	1f 92       	push	r1
     122:	0f 92       	push	r0
     124:	0f b6       	in	r0, 0x3f	; 63
     126:	0f 92       	push	r0
     128:	11 24       	eor	r1, r1
     12a:	0b b6       	in	r0, 0x3b	; 59
     12c:	0f 92       	push	r0
     12e:	2f 93       	push	r18
     130:	3f 93       	push	r19
     132:	4f 93       	push	r20
     134:	5f 93       	push	r21
     136:	6f 93       	push	r22
     138:	7f 93       	push	r23
     13a:	8f 93       	push	r24
     13c:	9f 93       	push	r25
     13e:	af 93       	push	r26
     140:	bf 93       	push	r27
     142:	ef 93       	push	r30
     144:	ff 93       	push	r31
	Slave_Select(Sensor_Slave);	//slave select
     146:	80 91 7f 01 	lds	r24, 0x017F
     14a:	84 d5       	rcall	.+2824   	; 0xc54 <Slave_Select>
	sensor_data = Master_RX(0x01); //sending dummy
     14c:	81 e0       	ldi	r24, 0x01	; 1
     14e:	72 d5       	rcall	.+2788   	; 0xc34 <Master_RX>
     150:	80 93 3e 01 	sts	0x013E, r24
	if(sensor_data == 0b00001111 || sensor_data == 0b00011111)
     154:	80 91 3e 01 	lds	r24, 0x013E
     158:	8f 30       	cpi	r24, 0x0F	; 15
     15a:	21 f0       	breq	.+8      	; 0x164 <__vector_2+0x44>
     15c:	80 91 3e 01 	lds	r24, 0x013E
     160:	8f 31       	cpi	r24, 0x1F	; 31
     162:	51 f4       	brne	.+20     	; 0x178 <__vector_2+0x58>
	{
		TX_sensor_data();
     164:	be d5       	rcall	.+2940   	; 0xce2 <TX_sensor_data>
		stationRightSide = 0;
     166:	10 92 57 01 	sts	0x0157, r1
		stationModeEnable = 1;
     16a:	81 e0       	ldi	r24, 0x01	; 1
     16c:	80 93 4a 01 	sts	0x014A, r24
		bluetoothTX(sensor_data);
     170:	80 91 3e 01 	lds	r24, 0x013E
     174:	be df       	rcall	.-132    	; 0xf2 <bluetoothTX>
     176:	11 c0       	rjmp	.+34     	; 0x19a <__vector_2+0x7a>
		
	}	else if(sensor_data == 0b01111000 || sensor_data == 0b01111100)
     178:	80 91 3e 01 	lds	r24, 0x013E
     17c:	88 37       	cpi	r24, 0x78	; 120
     17e:	21 f0       	breq	.+8      	; 0x188 <__vector_2+0x68>
     180:	80 91 3e 01 	lds	r24, 0x013E
     184:	8c 37       	cpi	r24, 0x7C	; 124
     186:	49 f4       	brne	.+18     	; 0x19a <__vector_2+0x7a>
	{
		TX_sensor_data();
     188:	ac d5       	rcall	.+2904   	; 0xce2 <TX_sensor_data>
		stationRightSide = 1;
     18a:	81 e0       	ldi	r24, 0x01	; 1
     18c:	80 93 57 01 	sts	0x0157, r24
		stationModeEnable = 1;
     190:	80 93 4a 01 	sts	0x014A, r24
		bluetoothTX(sensor_data);
     194:	80 91 3e 01 	lds	r24, 0x013E
     198:	ac df       	rcall	.-168    	; 0xf2 <bluetoothTX>
		
	}
	Slave_Select(Control_Slave);
     19a:	80 91 86 01 	lds	r24, 0x0186
     19e:	5a d5       	rcall	.+2740   	; 0xc54 <Slave_Select>
	
}
     1a0:	ff 91       	pop	r31
     1a2:	ef 91       	pop	r30
     1a4:	bf 91       	pop	r27
     1a6:	af 91       	pop	r26
     1a8:	9f 91       	pop	r25
     1aa:	8f 91       	pop	r24
     1ac:	7f 91       	pop	r23
     1ae:	6f 91       	pop	r22
     1b0:	5f 91       	pop	r21
     1b2:	4f 91       	pop	r20
     1b4:	3f 91       	pop	r19
     1b6:	2f 91       	pop	r18
     1b8:	0f 90       	pop	r0
     1ba:	0b be       	out	0x3b, r0	; 59
     1bc:	0f 90       	pop	r0
     1be:	0f be       	out	0x3f, r0	; 63
     1c0:	0f 90       	pop	r0
     1c2:	1f 90       	pop	r1
     1c4:	18 95       	reti

000001c6 <__vector_3>:

ISR(INT2_vect)
{
     1c6:	1f 92       	push	r1
     1c8:	0f 92       	push	r0
     1ca:	0f b6       	in	r0, 0x3f	; 63
     1cc:	0f 92       	push	r0
     1ce:	11 24       	eor	r1, r1
     1d0:	0b b6       	in	r0, 0x3b	; 59
     1d2:	0f 92       	push	r0
     1d4:	2f 93       	push	r18
     1d6:	3f 93       	push	r19
     1d8:	4f 93       	push	r20
     1da:	5f 93       	push	r21
     1dc:	6f 93       	push	r22
     1de:	7f 93       	push	r23
     1e0:	8f 93       	push	r24
     1e2:	9f 93       	push	r25
     1e4:	af 93       	push	r26
     1e6:	bf 93       	push	r27
     1e8:	ef 93       	push	r30
     1ea:	ff 93       	push	r31
	PORTB &= ~(1 << PORTB4);
     1ec:	2c 98       	cbi	0x05, 4	; 5
	//case wanted data : 0x01 = wheel, 0x10 = arm, 0x11 = RFID, 0x02 = sensor_data
	if(wanted_data == wr)
     1ee:	80 91 4b 01 	lds	r24, 0x014B
     1f2:	90 91 80 01 	lds	r25, 0x0180
     1f6:	89 13       	cpse	r24, r25
     1f8:	05 c0       	rjmp	.+10     	; 0x204 <__vector_3+0x3e>
	{
		wheel_steering_data = Master_RX(0x01);
     1fa:	81 e0       	ldi	r24, 0x01	; 1
     1fc:	1b d5       	rcall	.+2614   	; 0xc34 <Master_RX>
     1fe:	80 93 4e 01 	sts	0x014E, r24
     202:	08 c0       	rjmp	.+16     	; 0x214 <__vector_3+0x4e>
	}
	else if(wanted_data == ar)
     204:	90 91 81 01 	lds	r25, 0x0181
     208:	89 13       	cpse	r24, r25
     20a:	04 c0       	rjmp	.+8      	; 0x214 <__vector_3+0x4e>
	{
		robot_arm_data = Master_RX(0x01);
     20c:	81 e0       	ldi	r24, 0x01	; 1
     20e:	12 d5       	rcall	.+2596   	; 0xc34 <Master_RX>
     210:	80 93 3c 01 	sts	0x013C, r24
	}
}
     214:	ff 91       	pop	r31
     216:	ef 91       	pop	r30
     218:	bf 91       	pop	r27
     21a:	af 91       	pop	r26
     21c:	9f 91       	pop	r25
     21e:	8f 91       	pop	r24
     220:	7f 91       	pop	r23
     222:	6f 91       	pop	r22
     224:	5f 91       	pop	r21
     226:	4f 91       	pop	r20
     228:	3f 91       	pop	r19
     22a:	2f 91       	pop	r18
     22c:	0f 90       	pop	r0
     22e:	0b be       	out	0x3b, r0	; 59
     230:	0f 90       	pop	r0
     232:	0f be       	out	0x3f, r0	; 63
     234:	0f 90       	pop	r0
     236:	1f 90       	pop	r1
     238:	18 95       	reti

0000023a <__vector_16>:

ISR(TIMER0_COMPA_vect)
{
     23a:	1f 92       	push	r1
     23c:	0f 92       	push	r0
     23e:	0f b6       	in	r0, 0x3f	; 63
     240:	0f 92       	push	r0
     242:	11 24       	eor	r1, r1
     244:	0b b6       	in	r0, 0x3b	; 59
     246:	0f 92       	push	r0
     248:	2f 93       	push	r18
     24a:	3f 93       	push	r19
     24c:	4f 93       	push	r20
     24e:	5f 93       	push	r21
     250:	6f 93       	push	r22
     252:	7f 93       	push	r23
     254:	8f 93       	push	r24
     256:	9f 93       	push	r25
     258:	af 93       	push	r26
     25a:	bf 93       	push	r27
     25c:	ef 93       	push	r30
     25e:	ff 93       	push	r31
	if(stationModeEnable == 0)
     260:	80 91 4a 01 	lds	r24, 0x014A
     264:	81 11       	cpse	r24, r1
     266:	01 c0       	rjmp	.+2      	; 0x26a <__vector_16+0x30>
	{
		RX_sensor_data();
     268:	51 d5       	rcall	.+2722   	; 0xd0c <RX_sensor_data>
	}
}
     26a:	ff 91       	pop	r31
     26c:	ef 91       	pop	r30
     26e:	bf 91       	pop	r27
     270:	af 91       	pop	r26
     272:	9f 91       	pop	r25
     274:	8f 91       	pop	r24
     276:	7f 91       	pop	r23
     278:	6f 91       	pop	r22
     27a:	5f 91       	pop	r21
     27c:	4f 91       	pop	r20
     27e:	3f 91       	pop	r19
     280:	2f 91       	pop	r18
     282:	0f 90       	pop	r0
     284:	0b be       	out	0x3b, r0	; 59
     286:	0f 90       	pop	r0
     288:	0f be       	out	0x3f, r0	; 63
     28a:	0f 90       	pop	r0
     28c:	1f 90       	pop	r1
     28e:	18 95       	reti

00000290 <__vector_17>:

ISR(TIMER0_COMPB_vect)
{
     290:	1f 92       	push	r1
     292:	0f 92       	push	r0
     294:	0f b6       	in	r0, 0x3f	; 63
     296:	0f 92       	push	r0
     298:	11 24       	eor	r1, r1
     29a:	0b b6       	in	r0, 0x3b	; 59
     29c:	0f 92       	push	r0
     29e:	2f 93       	push	r18
     2a0:	3f 93       	push	r19
     2a2:	4f 93       	push	r20
     2a4:	5f 93       	push	r21
     2a6:	6f 93       	push	r22
     2a8:	7f 93       	push	r23
     2aa:	8f 93       	push	r24
     2ac:	9f 93       	push	r25
     2ae:	af 93       	push	r26
     2b0:	bf 93       	push	r27
     2b2:	ef 93       	push	r30
     2b4:	ff 93       	push	r31
	if(stationModeEnable == 0)
     2b6:	80 91 4a 01 	lds	r24, 0x014A
     2ba:	81 11       	cpse	r24, r1
     2bc:	04 c0       	rjmp	.+8      	; 0x2c6 <__vector_17+0x36>
	{
		TX_sensor_data();
     2be:	11 d5       	rcall	.+2594   	; 0xce2 <TX_sensor_data>
		bluetoothTX(sensor_data);
     2c0:	80 91 3e 01 	lds	r24, 0x013E
     2c4:	16 df       	rcall	.-468    	; 0xf2 <bluetoothTX>
	}
}
     2c6:	ff 91       	pop	r31
     2c8:	ef 91       	pop	r30
     2ca:	bf 91       	pop	r27
     2cc:	af 91       	pop	r26
     2ce:	9f 91       	pop	r25
     2d0:	8f 91       	pop	r24
     2d2:	7f 91       	pop	r23
     2d4:	6f 91       	pop	r22
     2d6:	5f 91       	pop	r21
     2d8:	4f 91       	pop	r20
     2da:	3f 91       	pop	r19
     2dc:	2f 91       	pop	r18
     2de:	0f 90       	pop	r0
     2e0:	0b be       	out	0x3b, r0	; 59
     2e2:	0f 90       	pop	r0
     2e4:	0f be       	out	0x3f, r0	; 63
     2e6:	0f 90       	pop	r0
     2e8:	1f 90       	pop	r1
     2ea:	18 95       	reti

000002ec <__vector_20>:

ISR(USART0_RX_vect)
{
     2ec:	1f 92       	push	r1
     2ee:	0f 92       	push	r0
     2f0:	0f b6       	in	r0, 0x3f	; 63
     2f2:	0f 92       	push	r0
     2f4:	11 24       	eor	r1, r1
     2f6:	0b b6       	in	r0, 0x3b	; 59
     2f8:	0f 92       	push	r0
     2fa:	2f 93       	push	r18
     2fc:	3f 93       	push	r19
     2fe:	4f 93       	push	r20
     300:	5f 93       	push	r21
     302:	6f 93       	push	r22
     304:	7f 93       	push	r23
     306:	8f 93       	push	r24
     308:	9f 93       	push	r25
     30a:	af 93       	push	r26
     30c:	bf 93       	push	r27
     30e:	ef 93       	push	r30
     310:	ff 93       	push	r31
	btdata = UDR0;
     312:	80 91 c6 00 	lds	r24, 0x00C6
     316:	80 93 56 01 	sts	0x0156, r24
	if (waiting_for_instruction == 1) {
     31a:	90 91 7e 01 	lds	r25, 0x017E
     31e:	91 30       	cpi	r25, 0x01	; 1
     320:	b1 f4       	brne	.+44     	; 0x34e <__vector_20+0x62>
		waiting_for_instruction = 0;
     322:	10 92 7e 01 	sts	0x017E, r1
		if (btdata == 1) {
     326:	81 30       	cpi	r24, 0x01	; 1
     328:	19 f4       	brne	.+6      	; 0x330 <__vector_20+0x44>
			component = WHEEL;
     32a:	80 93 51 01 	sts	0x0151, r24
     32e:	25 c0       	rjmp	.+74     	; 0x37a <__vector_20+0x8e>
		}
		else if(btdata == 2) {
     330:	82 30       	cpi	r24, 0x02	; 2
     332:	19 f4       	brne	.+6      	; 0x33a <__vector_20+0x4e>
			component = ARM;
     334:	80 93 51 01 	sts	0x0151, r24
     338:	20 c0       	rjmp	.+64     	; 0x37a <__vector_20+0x8e>
		}
		else if(btdata == 3) {
     33a:	83 30       	cpi	r24, 0x03	; 3
     33c:	19 f4       	brne	.+6      	; 0x344 <__vector_20+0x58>
			component = CALINSTR;
     33e:	80 93 51 01 	sts	0x0151, r24
     342:	1b c0       	rjmp	.+54     	; 0x37a <__vector_20+0x8e>
		}
		else if(btdata == 4) {
     344:	84 30       	cpi	r24, 0x04	; 4
     346:	c9 f4       	brne	.+50     	; 0x37a <__vector_20+0x8e>
			component = PCONINSTR;
     348:	80 93 51 01 	sts	0x0151, r24
     34c:	16 c0       	rjmp	.+44     	; 0x37a <__vector_20+0x8e>
		}
	}
	else {
		waiting_for_instruction = 1;
     34e:	91 e0       	ldi	r25, 0x01	; 1
     350:	90 93 7e 01 	sts	0x017E, r25
		if (component == WHEEL) {
     354:	90 91 51 01 	lds	r25, 0x0151
     358:	91 30       	cpi	r25, 0x01	; 1
     35a:	21 f4       	brne	.+8      	; 0x364 <__vector_20+0x78>
			wheel_steering_data = btdata;
     35c:	80 93 4e 01 	sts	0x014E, r24
			TX_wheel_data();
     360:	e2 d4       	rcall	.+2500   	; 0xd26 <TX_wheel_data>
     362:	0b c0       	rjmp	.+22     	; 0x37a <__vector_20+0x8e>
		}
		else if (component == ARM) {
     364:	92 30       	cpi	r25, 0x02	; 2
     366:	21 f4       	brne	.+8      	; 0x370 <__vector_20+0x84>
			robot_arm_data = btdata;
     368:	80 93 3c 01 	sts	0x013C, r24
			TX_arm_data();
     36c:	e5 d4       	rcall	.+2506   	; 0xd38 <TX_arm_data>
     36e:	05 c0       	rjmp	.+10     	; 0x37a <__vector_20+0x8e>
		}
		else if (component == CALINSTR) {
     370:	93 30       	cpi	r25, 0x03	; 3
     372:	19 f0       	breq	.+6      	; 0x37a <__vector_20+0x8e>
			//calibration();	
		}
		else if (component == PCONINSTR) {
     374:	94 30       	cpi	r25, 0x04	; 4
     376:	09 f4       	brne	.+2      	; 0x37a <__vector_20+0x8e>
			handleData(btdata);
     378:	a7 de       	rcall	.-690    	; 0xc8 <handleData>
		}
	}
	
}
     37a:	ff 91       	pop	r31
     37c:	ef 91       	pop	r30
     37e:	bf 91       	pop	r27
     380:	af 91       	pop	r26
     382:	9f 91       	pop	r25
     384:	8f 91       	pop	r24
     386:	7f 91       	pop	r23
     388:	6f 91       	pop	r22
     38a:	5f 91       	pop	r21
     38c:	4f 91       	pop	r20
     38e:	3f 91       	pop	r19
     390:	2f 91       	pop	r18
     392:	0f 90       	pop	r0
     394:	0b be       	out	0x3b, r0	; 59
     396:	0f 90       	pop	r0
     398:	0f be       	out	0x3f, r0	; 63
     39a:	0f 90       	pop	r0
     39c:	1f 90       	pop	r1
     39e:	18 95       	reti

000003a0 <__vector_28>:

/*
When the receive of one byte is complete, this interrupt will run.
*/
ISR(USART1_RX_vect){
     3a0:	1f 92       	push	r1
     3a2:	0f 92       	push	r0
     3a4:	0f b6       	in	r0, 0x3f	; 63
     3a6:	0f 92       	push	r0
     3a8:	11 24       	eor	r1, r1
     3aa:	0b b6       	in	r0, 0x3b	; 59
     3ac:	0f 92       	push	r0
     3ae:	2f 93       	push	r18
     3b0:	3f 93       	push	r19
     3b2:	4f 93       	push	r20
     3b4:	5f 93       	push	r21
     3b6:	6f 93       	push	r22
     3b8:	7f 93       	push	r23
     3ba:	8f 93       	push	r24
     3bc:	9f 93       	push	r25
     3be:	af 93       	push	r26
     3c0:	bf 93       	push	r27
     3c2:	ef 93       	push	r30
     3c4:	ff 93       	push	r31
	newStream[digit] = UDR1;
     3c6:	80 91 3d 01 	lds	r24, 0x013D
     3ca:	90 91 ce 00 	lds	r25, 0x00CE
     3ce:	e8 2f       	mov	r30, r24
     3d0:	f0 e0       	ldi	r31, 0x00	; 0
     3d2:	e0 5d       	subi	r30, 0xD0	; 208
     3d4:	fe 4f       	sbci	r31, 0xFE	; 254
     3d6:	90 83       	st	Z, r25
	digit++;
     3d8:	8f 5f       	subi	r24, 0xFF	; 255
	if (digit == 12) {
     3da:	8c 30       	cpi	r24, 0x0C	; 12
     3dc:	19 f0       	breq	.+6      	; 0x3e4 <__vector_28+0x44>
/*
When the receive of one byte is complete, this interrupt will run.
*/
ISR(USART1_RX_vect){
	newStream[digit] = UDR1;
	digit++;
     3de:	80 93 3d 01 	sts	0x013D, r24
     3e2:	07 c0       	rjmp	.+14     	; 0x3f2 <__vector_28+0x52>
	if (digit == 12) {
		digit = 0;
     3e4:	10 92 3d 01 	sts	0x013D, r1
		streamFilled = 1;
     3e8:	81 e0       	ldi	r24, 0x01	; 1
     3ea:	80 93 52 01 	sts	0x0152, r24
		powerRFID(0);
     3ee:	80 e0       	ldi	r24, 0x00	; 0
     3f0:	1a d5       	rcall	.+2612   	; 0xe26 <powerRFID>
	}
}
     3f2:	ff 91       	pop	r31
     3f4:	ef 91       	pop	r30
     3f6:	bf 91       	pop	r27
     3f8:	af 91       	pop	r26
     3fa:	9f 91       	pop	r25
     3fc:	8f 91       	pop	r24
     3fe:	7f 91       	pop	r23
     400:	6f 91       	pop	r22
     402:	5f 91       	pop	r21
     404:	4f 91       	pop	r20
     406:	3f 91       	pop	r19
     408:	2f 91       	pop	r18
     40a:	0f 90       	pop	r0
     40c:	0b be       	out	0x3b, r0	; 59
     40e:	0f 90       	pop	r0
     410:	0f be       	out	0x3f, r0	; 63
     412:	0f 90       	pop	r0
     414:	1f 90       	pop	r1
     416:	18 95       	reti

00000418 <main>:

int main(void)
{
	SPI_Init_Master();
     418:	cb d3       	rcall	.+1942   	; 0xbb0 <SPI_Init_Master>
	setupBluetoothRXTX();
     41a:	73 de       	rcall	.-794    	; 0x102 <setupBluetoothRXTX>
	setupRFID();
     41c:	ab d5       	rcall	.+2902   	; 0xf74 <setupRFID>
	setupLCD();
     41e:	d0 d5       	rcall	.+2976   	; 0xfc0 <setupLCD>
	setupWarehouse();
     420:	bc d5       	rcall	.+2936   	; 0xf9a <setupWarehouse>
	
	while(1)
	{
		if(stationModeEnable == 1)
     422:	80 91 4a 01 	lds	r24, 0x014A
     426:	88 23       	and	r24, r24
     428:	e1 f3       	breq	.-8      	; 0x422 <main+0xa>
		{
			stationMode();
     42a:	91 d5       	rcall	.+2850   	; 0xf4e <stationMode>
     42c:	fa cf       	rjmp	.-12     	; 0x422 <main+0xa>

0000042e <_hd44780_l_func>:
	_hd44780_l_func(conf, 0, 0, ((_BV(6) | addr) & ~_BV(7)), 40);
}

void hd44780_l_set_ddram_addr(const struct hd44780_l_conf* conf, uint8_t addr) {
	_hd44780_l_func(conf, 0, 0, (_BV(7) | addr), 40);
}
     42e:	0f 93       	push	r16
     430:	1f 93       	push	r17
     432:	cf 93       	push	r28
     434:	df 93       	push	r29
     436:	fc 01       	movw	r30, r24
     438:	90 81       	ld	r25, Z
     43a:	a3 85       	ldd	r26, Z+11	; 0x0b
     43c:	b4 85       	ldd	r27, Z+12	; 0x0c
     43e:	61 11       	cpse	r22, r1
     440:	0e c0       	rjmp	.+28     	; 0x45e <_hd44780_l_func+0x30>
     442:	3c 91       	ld	r19, X
     444:	61 e0       	ldi	r22, 0x01	; 1
     446:	70 e0       	ldi	r23, 0x00	; 0
     448:	eb 01       	movw	r28, r22
     44a:	02 c0       	rjmp	.+4      	; 0x450 <_hd44780_l_func+0x22>
     44c:	cc 0f       	add	r28, r28
     44e:	dd 1f       	adc	r29, r29
     450:	9a 95       	dec	r25
     452:	e2 f7       	brpl	.-8      	; 0x44c <_hd44780_l_func+0x1e>
     454:	ce 01       	movw	r24, r28
     456:	80 95       	com	r24
     458:	83 23       	and	r24, r19
     45a:	8c 93       	st	X, r24
     45c:	0c c0       	rjmp	.+24     	; 0x476 <_hd44780_l_func+0x48>
     45e:	3c 91       	ld	r19, X
     460:	61 e0       	ldi	r22, 0x01	; 1
     462:	70 e0       	ldi	r23, 0x00	; 0
     464:	eb 01       	movw	r28, r22
     466:	02 c0       	rjmp	.+4      	; 0x46c <_hd44780_l_func+0x3e>
     468:	cc 0f       	add	r28, r28
     46a:	dd 1f       	adc	r29, r29
     46c:	9a 95       	dec	r25
     46e:	e2 f7       	brpl	.-8      	; 0x468 <_hd44780_l_func+0x3a>
     470:	ce 01       	movw	r24, r28
     472:	83 2b       	or	r24, r19
     474:	8c 93       	st	X, r24
     476:	91 81       	ldd	r25, Z+1	; 0x01
     478:	a5 85       	ldd	r26, Z+13	; 0x0d
     47a:	b6 85       	ldd	r27, Z+14	; 0x0e
     47c:	41 11       	cpse	r20, r1
     47e:	0e c0       	rjmp	.+28     	; 0x49c <_hd44780_l_func+0x6e>
     480:	3c 91       	ld	r19, X
     482:	41 e0       	ldi	r20, 0x01	; 1
     484:	50 e0       	ldi	r21, 0x00	; 0
     486:	ba 01       	movw	r22, r20
     488:	02 c0       	rjmp	.+4      	; 0x48e <_hd44780_l_func+0x60>
     48a:	66 0f       	add	r22, r22
     48c:	77 1f       	adc	r23, r23
     48e:	9a 95       	dec	r25
     490:	e2 f7       	brpl	.-8      	; 0x48a <_hd44780_l_func+0x5c>
     492:	cb 01       	movw	r24, r22
     494:	80 95       	com	r24
     496:	83 23       	and	r24, r19
     498:	8c 93       	st	X, r24
     49a:	0c c0       	rjmp	.+24     	; 0x4b4 <_hd44780_l_func+0x86>
     49c:	3c 91       	ld	r19, X
     49e:	41 e0       	ldi	r20, 0x01	; 1
     4a0:	50 e0       	ldi	r21, 0x00	; 0
     4a2:	ea 01       	movw	r28, r20
     4a4:	02 c0       	rjmp	.+4      	; 0x4aa <_hd44780_l_func+0x7c>
     4a6:	cc 0f       	add	r28, r28
     4a8:	dd 1f       	adc	r29, r29
     4aa:	9a 95       	dec	r25
     4ac:	e2 f7       	brpl	.-8      	; 0x4a6 <_hd44780_l_func+0x78>
     4ae:	ce 01       	movw	r24, r28
     4b0:	83 2b       	or	r24, r19
     4b2:	8c 93       	st	X, r24
     4b4:	93 81       	ldd	r25, Z+3	; 0x03
     4b6:	a1 89       	ldd	r26, Z+17	; 0x11
     4b8:	b2 89       	ldd	r27, Z+18	; 0x12
     4ba:	22 23       	and	r18, r18
     4bc:	74 f0       	brlt	.+28     	; 0x4da <_hd44780_l_func+0xac>
     4be:	3c 91       	ld	r19, X
     4c0:	41 e0       	ldi	r20, 0x01	; 1
     4c2:	50 e0       	ldi	r21, 0x00	; 0
     4c4:	ba 01       	movw	r22, r20
     4c6:	02 c0       	rjmp	.+4      	; 0x4cc <_hd44780_l_func+0x9e>
     4c8:	66 0f       	add	r22, r22
     4ca:	77 1f       	adc	r23, r23
     4cc:	9a 95       	dec	r25
     4ce:	e2 f7       	brpl	.-8      	; 0x4c8 <_hd44780_l_func+0x9a>
     4d0:	cb 01       	movw	r24, r22
     4d2:	80 95       	com	r24
     4d4:	83 23       	and	r24, r19
     4d6:	8c 93       	st	X, r24
     4d8:	0c c0       	rjmp	.+24     	; 0x4f2 <_hd44780_l_func+0xc4>
     4da:	3c 91       	ld	r19, X
     4dc:	41 e0       	ldi	r20, 0x01	; 1
     4de:	50 e0       	ldi	r21, 0x00	; 0
     4e0:	ea 01       	movw	r28, r20
     4e2:	02 c0       	rjmp	.+4      	; 0x4e8 <_hd44780_l_func+0xba>
     4e4:	cc 0f       	add	r28, r28
     4e6:	dd 1f       	adc	r29, r29
     4e8:	9a 95       	dec	r25
     4ea:	e2 f7       	brpl	.-8      	; 0x4e4 <_hd44780_l_func+0xb6>
     4ec:	ce 01       	movw	r24, r28
     4ee:	83 2b       	or	r24, r19
     4f0:	8c 93       	st	X, r24
     4f2:	94 81       	ldd	r25, Z+4	; 0x04
     4f4:	a3 89       	ldd	r26, Z+19	; 0x13
     4f6:	b4 89       	ldd	r27, Z+20	; 0x14
     4f8:	26 fd       	sbrc	r18, 6
     4fa:	0e c0       	rjmp	.+28     	; 0x518 <_hd44780_l_func+0xea>
     4fc:	3c 91       	ld	r19, X
     4fe:	41 e0       	ldi	r20, 0x01	; 1
     500:	50 e0       	ldi	r21, 0x00	; 0
     502:	ba 01       	movw	r22, r20
     504:	02 c0       	rjmp	.+4      	; 0x50a <_hd44780_l_func+0xdc>
     506:	66 0f       	add	r22, r22
     508:	77 1f       	adc	r23, r23
     50a:	9a 95       	dec	r25
     50c:	e2 f7       	brpl	.-8      	; 0x506 <_hd44780_l_func+0xd8>
     50e:	cb 01       	movw	r24, r22
     510:	80 95       	com	r24
     512:	83 23       	and	r24, r19
     514:	8c 93       	st	X, r24
     516:	0c c0       	rjmp	.+24     	; 0x530 <_hd44780_l_func+0x102>
     518:	3c 91       	ld	r19, X
     51a:	41 e0       	ldi	r20, 0x01	; 1
     51c:	50 e0       	ldi	r21, 0x00	; 0
     51e:	ea 01       	movw	r28, r20
     520:	02 c0       	rjmp	.+4      	; 0x526 <_hd44780_l_func+0xf8>
     522:	cc 0f       	add	r28, r28
     524:	dd 1f       	adc	r29, r29
     526:	9a 95       	dec	r25
     528:	e2 f7       	brpl	.-8      	; 0x522 <_hd44780_l_func+0xf4>
     52a:	ce 01       	movw	r24, r28
     52c:	83 2b       	or	r24, r19
     52e:	8c 93       	st	X, r24
     530:	95 81       	ldd	r25, Z+5	; 0x05
     532:	a5 89       	ldd	r26, Z+21	; 0x15
     534:	b6 89       	ldd	r27, Z+22	; 0x16
     536:	25 fd       	sbrc	r18, 5
     538:	0e c0       	rjmp	.+28     	; 0x556 <_hd44780_l_func+0x128>
     53a:	3c 91       	ld	r19, X
     53c:	41 e0       	ldi	r20, 0x01	; 1
     53e:	50 e0       	ldi	r21, 0x00	; 0
     540:	ba 01       	movw	r22, r20
     542:	02 c0       	rjmp	.+4      	; 0x548 <_hd44780_l_func+0x11a>
     544:	66 0f       	add	r22, r22
     546:	77 1f       	adc	r23, r23
     548:	9a 95       	dec	r25
     54a:	e2 f7       	brpl	.-8      	; 0x544 <_hd44780_l_func+0x116>
     54c:	cb 01       	movw	r24, r22
     54e:	80 95       	com	r24
     550:	83 23       	and	r24, r19
     552:	8c 93       	st	X, r24
     554:	0c c0       	rjmp	.+24     	; 0x56e <_hd44780_l_func+0x140>
     556:	3c 91       	ld	r19, X
     558:	41 e0       	ldi	r20, 0x01	; 1
     55a:	50 e0       	ldi	r21, 0x00	; 0
     55c:	ea 01       	movw	r28, r20
     55e:	02 c0       	rjmp	.+4      	; 0x564 <_hd44780_l_func+0x136>
     560:	cc 0f       	add	r28, r28
     562:	dd 1f       	adc	r29, r29
     564:	9a 95       	dec	r25
     566:	e2 f7       	brpl	.-8      	; 0x560 <_hd44780_l_func+0x132>
     568:	ce 01       	movw	r24, r28
     56a:	83 2b       	or	r24, r19
     56c:	8c 93       	st	X, r24
     56e:	96 81       	ldd	r25, Z+6	; 0x06
     570:	a7 89       	ldd	r26, Z+23	; 0x17
     572:	b0 8d       	ldd	r27, Z+24	; 0x18
     574:	24 fd       	sbrc	r18, 4
     576:	0e c0       	rjmp	.+28     	; 0x594 <_hd44780_l_func+0x166>
     578:	3c 91       	ld	r19, X
     57a:	41 e0       	ldi	r20, 0x01	; 1
     57c:	50 e0       	ldi	r21, 0x00	; 0
     57e:	ba 01       	movw	r22, r20
     580:	02 c0       	rjmp	.+4      	; 0x586 <_hd44780_l_func+0x158>
     582:	66 0f       	add	r22, r22
     584:	77 1f       	adc	r23, r23
     586:	9a 95       	dec	r25
     588:	e2 f7       	brpl	.-8      	; 0x582 <_hd44780_l_func+0x154>
     58a:	cb 01       	movw	r24, r22
     58c:	80 95       	com	r24
     58e:	83 23       	and	r24, r19
     590:	8c 93       	st	X, r24
     592:	0c c0       	rjmp	.+24     	; 0x5ac <_hd44780_l_func+0x17e>
     594:	3c 91       	ld	r19, X
     596:	41 e0       	ldi	r20, 0x01	; 1
     598:	50 e0       	ldi	r21, 0x00	; 0
     59a:	ea 01       	movw	r28, r20
     59c:	02 c0       	rjmp	.+4      	; 0x5a2 <_hd44780_l_func+0x174>
     59e:	cc 0f       	add	r28, r28
     5a0:	dd 1f       	adc	r29, r29
     5a2:	9a 95       	dec	r25
     5a4:	e2 f7       	brpl	.-8      	; 0x59e <_hd44780_l_func+0x170>
     5a6:	ce 01       	movw	r24, r28
     5a8:	83 2b       	or	r24, r19
     5aa:	8c 93       	st	X, r24
     5ac:	83 a1       	ldd	r24, Z+35	; 0x23
     5ae:	81 11       	cpse	r24, r1
     5b0:	1f c0       	rjmp	.+62     	; 0x5f0 <_hd44780_l_func+0x1c2>
     5b2:	00 c0       	rjmp	.+0      	; 0x5b4 <_hd44780_l_func+0x186>
     5b4:	a7 85       	ldd	r26, Z+15	; 0x0f
     5b6:	b0 89       	ldd	r27, Z+16	; 0x10
     5b8:	3c 91       	ld	r19, X
     5ba:	81 e0       	ldi	r24, 0x01	; 1
     5bc:	90 e0       	ldi	r25, 0x00	; 0
     5be:	ac 01       	movw	r20, r24
     5c0:	02 80       	ldd	r0, Z+2	; 0x02
     5c2:	02 c0       	rjmp	.+4      	; 0x5c8 <_hd44780_l_func+0x19a>
     5c4:	44 0f       	add	r20, r20
     5c6:	55 1f       	adc	r21, r21
     5c8:	0a 94       	dec	r0
     5ca:	e2 f7       	brpl	.-8      	; 0x5c4 <_hd44780_l_func+0x196>
     5cc:	43 2b       	or	r20, r19
     5ce:	4c 93       	st	X, r20
     5d0:	00 c0       	rjmp	.+0      	; 0x5d2 <_hd44780_l_func+0x1a4>
     5d2:	00 c0       	rjmp	.+0      	; 0x5d4 <_hd44780_l_func+0x1a6>
     5d4:	a7 85       	ldd	r26, Z+15	; 0x0f
     5d6:	b0 89       	ldd	r27, Z+16	; 0x10
     5d8:	3c 91       	ld	r19, X
     5da:	02 80       	ldd	r0, Z+2	; 0x02
     5dc:	02 c0       	rjmp	.+4      	; 0x5e2 <_hd44780_l_func+0x1b4>
     5de:	88 0f       	add	r24, r24
     5e0:	99 1f       	adc	r25, r25
     5e2:	0a 94       	dec	r0
     5e4:	e2 f7       	brpl	.-8      	; 0x5de <_hd44780_l_func+0x1b0>
     5e6:	80 95       	com	r24
     5e8:	83 23       	and	r24, r19
     5ea:	8c 93       	st	X, r24
     5ec:	00 c0       	rjmp	.+0      	; 0x5ee <_hd44780_l_func+0x1c0>
     5ee:	00 c0       	rjmp	.+0      	; 0x5f0 <_hd44780_l_func+0x1c2>
     5f0:	83 a1       	ldd	r24, Z+35	; 0x23
     5f2:	81 30       	cpi	r24, 0x01	; 1
     5f4:	09 f0       	breq	.+2      	; 0x5f8 <_hd44780_l_func+0x1ca>
     5f6:	7d c0       	rjmp	.+250    	; 0x6f2 <_hd44780_l_func+0x2c4>
     5f8:	97 81       	ldd	r25, Z+7	; 0x07
     5fa:	a1 8d       	ldd	r26, Z+25	; 0x19
     5fc:	b2 8d       	ldd	r27, Z+26	; 0x1a
     5fe:	23 fd       	sbrc	r18, 3
     600:	0e c0       	rjmp	.+28     	; 0x61e <_hd44780_l_func+0x1f0>
     602:	3c 91       	ld	r19, X
     604:	41 e0       	ldi	r20, 0x01	; 1
     606:	50 e0       	ldi	r21, 0x00	; 0
     608:	ba 01       	movw	r22, r20
     60a:	02 c0       	rjmp	.+4      	; 0x610 <_hd44780_l_func+0x1e2>
     60c:	66 0f       	add	r22, r22
     60e:	77 1f       	adc	r23, r23
     610:	9a 95       	dec	r25
     612:	e2 f7       	brpl	.-8      	; 0x60c <_hd44780_l_func+0x1de>
     614:	cb 01       	movw	r24, r22
     616:	80 95       	com	r24
     618:	83 23       	and	r24, r19
     61a:	8c 93       	st	X, r24
     61c:	0c c0       	rjmp	.+24     	; 0x636 <_hd44780_l_func+0x208>
     61e:	3c 91       	ld	r19, X
     620:	41 e0       	ldi	r20, 0x01	; 1
     622:	50 e0       	ldi	r21, 0x00	; 0
     624:	ea 01       	movw	r28, r20
     626:	02 c0       	rjmp	.+4      	; 0x62c <_hd44780_l_func+0x1fe>
     628:	cc 0f       	add	r28, r28
     62a:	dd 1f       	adc	r29, r29
     62c:	9a 95       	dec	r25
     62e:	e2 f7       	brpl	.-8      	; 0x628 <_hd44780_l_func+0x1fa>
     630:	ce 01       	movw	r24, r28
     632:	83 2b       	or	r24, r19
     634:	8c 93       	st	X, r24
     636:	90 85       	ldd	r25, Z+8	; 0x08
     638:	a3 8d       	ldd	r26, Z+27	; 0x1b
     63a:	b4 8d       	ldd	r27, Z+28	; 0x1c
     63c:	22 fd       	sbrc	r18, 2
     63e:	0e c0       	rjmp	.+28     	; 0x65c <_hd44780_l_func+0x22e>
     640:	3c 91       	ld	r19, X
     642:	41 e0       	ldi	r20, 0x01	; 1
     644:	50 e0       	ldi	r21, 0x00	; 0
     646:	ba 01       	movw	r22, r20
     648:	02 c0       	rjmp	.+4      	; 0x64e <_hd44780_l_func+0x220>
     64a:	66 0f       	add	r22, r22
     64c:	77 1f       	adc	r23, r23
     64e:	9a 95       	dec	r25
     650:	e2 f7       	brpl	.-8      	; 0x64a <_hd44780_l_func+0x21c>
     652:	cb 01       	movw	r24, r22
     654:	80 95       	com	r24
     656:	83 23       	and	r24, r19
     658:	8c 93       	st	X, r24
     65a:	0c c0       	rjmp	.+24     	; 0x674 <_hd44780_l_func+0x246>
     65c:	3c 91       	ld	r19, X
     65e:	41 e0       	ldi	r20, 0x01	; 1
     660:	50 e0       	ldi	r21, 0x00	; 0
     662:	ea 01       	movw	r28, r20
     664:	02 c0       	rjmp	.+4      	; 0x66a <_hd44780_l_func+0x23c>
     666:	cc 0f       	add	r28, r28
     668:	dd 1f       	adc	r29, r29
     66a:	9a 95       	dec	r25
     66c:	e2 f7       	brpl	.-8      	; 0x666 <_hd44780_l_func+0x238>
     66e:	ce 01       	movw	r24, r28
     670:	83 2b       	or	r24, r19
     672:	8c 93       	st	X, r24
     674:	91 85       	ldd	r25, Z+9	; 0x09
     676:	a5 8d       	ldd	r26, Z+29	; 0x1d
     678:	b6 8d       	ldd	r27, Z+30	; 0x1e
     67a:	21 fd       	sbrc	r18, 1
     67c:	0e c0       	rjmp	.+28     	; 0x69a <_hd44780_l_func+0x26c>
     67e:	3c 91       	ld	r19, X
     680:	41 e0       	ldi	r20, 0x01	; 1
     682:	50 e0       	ldi	r21, 0x00	; 0
     684:	ba 01       	movw	r22, r20
     686:	02 c0       	rjmp	.+4      	; 0x68c <_hd44780_l_func+0x25e>
     688:	66 0f       	add	r22, r22
     68a:	77 1f       	adc	r23, r23
     68c:	9a 95       	dec	r25
     68e:	e2 f7       	brpl	.-8      	; 0x688 <_hd44780_l_func+0x25a>
     690:	cb 01       	movw	r24, r22
     692:	80 95       	com	r24
     694:	83 23       	and	r24, r19
     696:	8c 93       	st	X, r24
     698:	0c c0       	rjmp	.+24     	; 0x6b2 <_hd44780_l_func+0x284>
     69a:	3c 91       	ld	r19, X
     69c:	41 e0       	ldi	r20, 0x01	; 1
     69e:	50 e0       	ldi	r21, 0x00	; 0
     6a0:	ea 01       	movw	r28, r20
     6a2:	02 c0       	rjmp	.+4      	; 0x6a8 <_hd44780_l_func+0x27a>
     6a4:	cc 0f       	add	r28, r28
     6a6:	dd 1f       	adc	r29, r29
     6a8:	9a 95       	dec	r25
     6aa:	e2 f7       	brpl	.-8      	; 0x6a4 <_hd44780_l_func+0x276>
     6ac:	ce 01       	movw	r24, r28
     6ae:	83 2b       	or	r24, r19
     6b0:	8c 93       	st	X, r24
     6b2:	92 85       	ldd	r25, Z+10	; 0x0a
     6b4:	a7 8d       	ldd	r26, Z+31	; 0x1f
     6b6:	b0 a1       	ldd	r27, Z+32	; 0x20
     6b8:	20 fd       	sbrc	r18, 0
     6ba:	0e c0       	rjmp	.+28     	; 0x6d8 <_hd44780_l_func+0x2aa>
     6bc:	4c 91       	ld	r20, X
     6be:	21 e0       	ldi	r18, 0x01	; 1
     6c0:	30 e0       	ldi	r19, 0x00	; 0
     6c2:	b9 01       	movw	r22, r18
     6c4:	02 c0       	rjmp	.+4      	; 0x6ca <_hd44780_l_func+0x29c>
     6c6:	66 0f       	add	r22, r22
     6c8:	77 1f       	adc	r23, r23
     6ca:	9a 95       	dec	r25
     6cc:	e2 f7       	brpl	.-8      	; 0x6c6 <_hd44780_l_func+0x298>
     6ce:	cb 01       	movw	r24, r22
     6d0:	80 95       	com	r24
     6d2:	84 23       	and	r24, r20
     6d4:	8c 93       	st	X, r24
     6d6:	89 c0       	rjmp	.+274    	; 0x7ea <_hd44780_l_func+0x3bc>
     6d8:	4c 91       	ld	r20, X
     6da:	21 e0       	ldi	r18, 0x01	; 1
     6dc:	30 e0       	ldi	r19, 0x00	; 0
     6de:	e9 01       	movw	r28, r18
     6e0:	02 c0       	rjmp	.+4      	; 0x6e6 <_hd44780_l_func+0x2b8>
     6e2:	cc 0f       	add	r28, r28
     6e4:	dd 1f       	adc	r29, r29
     6e6:	9a 95       	dec	r25
     6e8:	e2 f7       	brpl	.-8      	; 0x6e2 <_hd44780_l_func+0x2b4>
     6ea:	ce 01       	movw	r24, r28
     6ec:	84 2b       	or	r24, r20
     6ee:	8c 93       	st	X, r24
     6f0:	7c c0       	rjmp	.+248    	; 0x7ea <_hd44780_l_func+0x3bc>
     6f2:	93 81       	ldd	r25, Z+3	; 0x03
     6f4:	a1 89       	ldd	r26, Z+17	; 0x11
     6f6:	b2 89       	ldd	r27, Z+18	; 0x12
     6f8:	23 fd       	sbrc	r18, 3
     6fa:	0e c0       	rjmp	.+28     	; 0x718 <_hd44780_l_func+0x2ea>
     6fc:	3c 91       	ld	r19, X
     6fe:	41 e0       	ldi	r20, 0x01	; 1
     700:	50 e0       	ldi	r21, 0x00	; 0
     702:	ba 01       	movw	r22, r20
     704:	02 c0       	rjmp	.+4      	; 0x70a <_hd44780_l_func+0x2dc>
     706:	66 0f       	add	r22, r22
     708:	77 1f       	adc	r23, r23
     70a:	9a 95       	dec	r25
     70c:	e2 f7       	brpl	.-8      	; 0x706 <_hd44780_l_func+0x2d8>
     70e:	cb 01       	movw	r24, r22
     710:	80 95       	com	r24
     712:	83 23       	and	r24, r19
     714:	8c 93       	st	X, r24
     716:	0c c0       	rjmp	.+24     	; 0x730 <_hd44780_l_func+0x302>
     718:	3c 91       	ld	r19, X
     71a:	41 e0       	ldi	r20, 0x01	; 1
     71c:	50 e0       	ldi	r21, 0x00	; 0
     71e:	ea 01       	movw	r28, r20
     720:	02 c0       	rjmp	.+4      	; 0x726 <_hd44780_l_func+0x2f8>
     722:	cc 0f       	add	r28, r28
     724:	dd 1f       	adc	r29, r29
     726:	9a 95       	dec	r25
     728:	e2 f7       	brpl	.-8      	; 0x722 <_hd44780_l_func+0x2f4>
     72a:	ce 01       	movw	r24, r28
     72c:	83 2b       	or	r24, r19
     72e:	8c 93       	st	X, r24
     730:	94 81       	ldd	r25, Z+4	; 0x04
     732:	a3 89       	ldd	r26, Z+19	; 0x13
     734:	b4 89       	ldd	r27, Z+20	; 0x14
     736:	22 fd       	sbrc	r18, 2
     738:	0e c0       	rjmp	.+28     	; 0x756 <_hd44780_l_func+0x328>
     73a:	3c 91       	ld	r19, X
     73c:	41 e0       	ldi	r20, 0x01	; 1
     73e:	50 e0       	ldi	r21, 0x00	; 0
     740:	ba 01       	movw	r22, r20
     742:	02 c0       	rjmp	.+4      	; 0x748 <_hd44780_l_func+0x31a>
     744:	66 0f       	add	r22, r22
     746:	77 1f       	adc	r23, r23
     748:	9a 95       	dec	r25
     74a:	e2 f7       	brpl	.-8      	; 0x744 <_hd44780_l_func+0x316>
     74c:	cb 01       	movw	r24, r22
     74e:	80 95       	com	r24
     750:	83 23       	and	r24, r19
     752:	8c 93       	st	X, r24
     754:	0c c0       	rjmp	.+24     	; 0x76e <_hd44780_l_func+0x340>
     756:	3c 91       	ld	r19, X
     758:	41 e0       	ldi	r20, 0x01	; 1
     75a:	50 e0       	ldi	r21, 0x00	; 0
     75c:	ea 01       	movw	r28, r20
     75e:	02 c0       	rjmp	.+4      	; 0x764 <_hd44780_l_func+0x336>
     760:	cc 0f       	add	r28, r28
     762:	dd 1f       	adc	r29, r29
     764:	9a 95       	dec	r25
     766:	e2 f7       	brpl	.-8      	; 0x760 <_hd44780_l_func+0x332>
     768:	ce 01       	movw	r24, r28
     76a:	83 2b       	or	r24, r19
     76c:	8c 93       	st	X, r24
     76e:	95 81       	ldd	r25, Z+5	; 0x05
     770:	a5 89       	ldd	r26, Z+21	; 0x15
     772:	b6 89       	ldd	r27, Z+22	; 0x16
     774:	21 fd       	sbrc	r18, 1
     776:	0e c0       	rjmp	.+28     	; 0x794 <_hd44780_l_func+0x366>
     778:	3c 91       	ld	r19, X
     77a:	41 e0       	ldi	r20, 0x01	; 1
     77c:	50 e0       	ldi	r21, 0x00	; 0
     77e:	ba 01       	movw	r22, r20
     780:	02 c0       	rjmp	.+4      	; 0x786 <_hd44780_l_func+0x358>
     782:	66 0f       	add	r22, r22
     784:	77 1f       	adc	r23, r23
     786:	9a 95       	dec	r25
     788:	e2 f7       	brpl	.-8      	; 0x782 <_hd44780_l_func+0x354>
     78a:	cb 01       	movw	r24, r22
     78c:	80 95       	com	r24
     78e:	83 23       	and	r24, r19
     790:	8c 93       	st	X, r24
     792:	0c c0       	rjmp	.+24     	; 0x7ac <_hd44780_l_func+0x37e>
     794:	3c 91       	ld	r19, X
     796:	41 e0       	ldi	r20, 0x01	; 1
     798:	50 e0       	ldi	r21, 0x00	; 0
     79a:	ea 01       	movw	r28, r20
     79c:	02 c0       	rjmp	.+4      	; 0x7a2 <_hd44780_l_func+0x374>
     79e:	cc 0f       	add	r28, r28
     7a0:	dd 1f       	adc	r29, r29
     7a2:	9a 95       	dec	r25
     7a4:	e2 f7       	brpl	.-8      	; 0x79e <_hd44780_l_func+0x370>
     7a6:	ce 01       	movw	r24, r28
     7a8:	83 2b       	or	r24, r19
     7aa:	8c 93       	st	X, r24
     7ac:	96 81       	ldd	r25, Z+6	; 0x06
     7ae:	a7 89       	ldd	r26, Z+23	; 0x17
     7b0:	b0 8d       	ldd	r27, Z+24	; 0x18
     7b2:	20 fd       	sbrc	r18, 0
     7b4:	0e c0       	rjmp	.+28     	; 0x7d2 <_hd44780_l_func+0x3a4>
     7b6:	4c 91       	ld	r20, X
     7b8:	21 e0       	ldi	r18, 0x01	; 1
     7ba:	30 e0       	ldi	r19, 0x00	; 0
     7bc:	b9 01       	movw	r22, r18
     7be:	02 c0       	rjmp	.+4      	; 0x7c4 <_hd44780_l_func+0x396>
     7c0:	66 0f       	add	r22, r22
     7c2:	77 1f       	adc	r23, r23
     7c4:	9a 95       	dec	r25
     7c6:	e2 f7       	brpl	.-8      	; 0x7c0 <_hd44780_l_func+0x392>
     7c8:	cb 01       	movw	r24, r22
     7ca:	80 95       	com	r24
     7cc:	84 23       	and	r24, r20
     7ce:	8c 93       	st	X, r24
     7d0:	0c c0       	rjmp	.+24     	; 0x7ea <_hd44780_l_func+0x3bc>
     7d2:	4c 91       	ld	r20, X
     7d4:	21 e0       	ldi	r18, 0x01	; 1
     7d6:	30 e0       	ldi	r19, 0x00	; 0
     7d8:	e9 01       	movw	r28, r18
     7da:	02 c0       	rjmp	.+4      	; 0x7e0 <_hd44780_l_func+0x3b2>
     7dc:	cc 0f       	add	r28, r28
     7de:	dd 1f       	adc	r29, r29
     7e0:	9a 95       	dec	r25
     7e2:	e2 f7       	brpl	.-8      	; 0x7dc <_hd44780_l_func+0x3ae>
     7e4:	ce 01       	movw	r24, r28
     7e6:	84 2b       	or	r24, r20
     7e8:	8c 93       	st	X, r24
     7ea:	00 c0       	rjmp	.+0      	; 0x7ec <_hd44780_l_func+0x3be>
     7ec:	a7 85       	ldd	r26, Z+15	; 0x0f
     7ee:	b0 89       	ldd	r27, Z+16	; 0x10
     7f0:	4c 91       	ld	r20, X
     7f2:	81 e0       	ldi	r24, 0x01	; 1
     7f4:	90 e0       	ldi	r25, 0x00	; 0
     7f6:	9c 01       	movw	r18, r24
     7f8:	02 80       	ldd	r0, Z+2	; 0x02
     7fa:	02 c0       	rjmp	.+4      	; 0x800 <_hd44780_l_func+0x3d2>
     7fc:	22 0f       	add	r18, r18
     7fe:	33 1f       	adc	r19, r19
     800:	0a 94       	dec	r0
     802:	e2 f7       	brpl	.-8      	; 0x7fc <_hd44780_l_func+0x3ce>
     804:	24 2b       	or	r18, r20
     806:	2c 93       	st	X, r18
     808:	00 c0       	rjmp	.+0      	; 0x80a <_hd44780_l_func+0x3dc>
     80a:	00 c0       	rjmp	.+0      	; 0x80c <_hd44780_l_func+0x3de>
     80c:	a7 85       	ldd	r26, Z+15	; 0x0f
     80e:	b0 89       	ldd	r27, Z+16	; 0x10
     810:	2c 91       	ld	r18, X
     812:	02 80       	ldd	r0, Z+2	; 0x02
     814:	02 c0       	rjmp	.+4      	; 0x81a <_hd44780_l_func+0x3ec>
     816:	88 0f       	add	r24, r24
     818:	99 1f       	adc	r25, r25
     81a:	0a 94       	dec	r0
     81c:	e2 f7       	brpl	.-8      	; 0x816 <_hd44780_l_func+0x3e8>
     81e:	80 95       	com	r24
     820:	82 23       	and	r24, r18
     822:	8c 93       	st	X, r24
     824:	00 c0       	rjmp	.+0      	; 0x826 <_hd44780_l_func+0x3f8>
     826:	00 c0       	rjmp	.+0      	; 0x828 <_hd44780_l_func+0x3fa>
     828:	01 15       	cp	r16, r1
     82a:	11 05       	cpc	r17, r1
     82c:	49 f0       	breq	.+18     	; 0x840 <_hd44780_l_func+0x412>
     82e:	80 e0       	ldi	r24, 0x00	; 0
     830:	90 e0       	ldi	r25, 0x00	; 0
     832:	d5 e0       	ldi	r29, 0x05	; 5
     834:	da 95       	dec	r29
     836:	f1 f7       	brne	.-4      	; 0x834 <_hd44780_l_func+0x406>
     838:	01 96       	adiw	r24, 0x01	; 1
     83a:	80 17       	cp	r24, r16
     83c:	91 07       	cpc	r25, r17
     83e:	c9 f7       	brne	.-14     	; 0x832 <_hd44780_l_func+0x404>
     840:	df 91       	pop	r29
     842:	cf 91       	pop	r28
     844:	1f 91       	pop	r17
     846:	0f 91       	pop	r16
     848:	08 95       	ret

0000084a <hd44780_l_clear_disp>:
     84a:	0f 93       	push	r16
     84c:	1f 93       	push	r17
     84e:	08 e6       	ldi	r16, 0x68	; 104
     850:	16 e0       	ldi	r17, 0x06	; 6
     852:	21 e0       	ldi	r18, 0x01	; 1
     854:	40 e0       	ldi	r20, 0x00	; 0
     856:	60 e0       	ldi	r22, 0x00	; 0
     858:	ea dd       	rcall	.-1068   	; 0x42e <_hd44780_l_func>
     85a:	1f 91       	pop	r17
     85c:	0f 91       	pop	r16
     85e:	08 95       	ret

00000860 <hd44780_l_ems>:
     860:	0f 93       	push	r16
     862:	1f 93       	push	r17
     864:	e6 2f       	mov	r30, r22
     866:	f0 e0       	ldi	r31, 0x00	; 0
     868:	bf 01       	movw	r22, r30
     86a:	66 0f       	add	r22, r22
     86c:	77 1f       	adc	r23, r23
     86e:	64 60       	ori	r22, 0x04	; 4
     870:	24 2f       	mov	r18, r20
     872:	26 2b       	or	r18, r22
     874:	08 e2       	ldi	r16, 0x28	; 40
     876:	10 e0       	ldi	r17, 0x00	; 0
     878:	40 e0       	ldi	r20, 0x00	; 0
     87a:	60 e0       	ldi	r22, 0x00	; 0
     87c:	d8 dd       	rcall	.-1104   	; 0x42e <_hd44780_l_func>
     87e:	1f 91       	pop	r17
     880:	0f 91       	pop	r16
     882:	08 95       	ret

00000884 <hd44780_l_disp>:
     884:	0f 93       	push	r16
     886:	1f 93       	push	r17
     888:	e6 2f       	mov	r30, r22
     88a:	f0 e0       	ldi	r31, 0x00	; 0
     88c:	bf 01       	movw	r22, r30
     88e:	66 0f       	add	r22, r22
     890:	77 1f       	adc	r23, r23
     892:	66 0f       	add	r22, r22
     894:	77 1f       	adc	r23, r23
     896:	68 60       	ori	r22, 0x08	; 8
     898:	44 0f       	add	r20, r20
     89a:	64 2b       	or	r22, r20
     89c:	26 2b       	or	r18, r22
     89e:	08 e2       	ldi	r16, 0x28	; 40
     8a0:	10 e0       	ldi	r17, 0x00	; 0
     8a2:	40 e0       	ldi	r20, 0x00	; 0
     8a4:	60 e0       	ldi	r22, 0x00	; 0
     8a6:	c3 dd       	rcall	.-1146   	; 0x42e <_hd44780_l_func>
     8a8:	1f 91       	pop	r17
     8aa:	0f 91       	pop	r16
     8ac:	08 95       	ret

000008ae <hd44780_l_fs>:
     8ae:	0f 93       	push	r16
     8b0:	1f 93       	push	r17
     8b2:	44 0f       	add	r20, r20
     8b4:	44 0f       	add	r20, r20
     8b6:	44 0f       	add	r20, r20
     8b8:	30 e1       	ldi	r19, 0x10	; 16
     8ba:	63 9f       	mul	r22, r19
     8bc:	b0 01       	movw	r22, r0
     8be:	11 24       	eor	r1, r1
     8c0:	60 62       	ori	r22, 0x20	; 32
     8c2:	64 2b       	or	r22, r20
     8c4:	22 0f       	add	r18, r18
     8c6:	22 0f       	add	r18, r18
     8c8:	26 2b       	or	r18, r22
     8ca:	08 e2       	ldi	r16, 0x28	; 40
     8cc:	10 e0       	ldi	r17, 0x00	; 0
     8ce:	40 e0       	ldi	r20, 0x00	; 0
     8d0:	60 e0       	ldi	r22, 0x00	; 0
     8d2:	ad dd       	rcall	.-1190   	; 0x42e <_hd44780_l_func>
     8d4:	1f 91       	pop	r17
     8d6:	0f 91       	pop	r16
     8d8:	08 95       	ret

000008da <hd44780_l_write>:

void hd44780_l_write(const struct hd44780_l_conf* conf, uint8_t data) {
     8da:	0f 93       	push	r16
     8dc:	1f 93       	push	r17
     8de:	26 2f       	mov	r18, r22
	_hd44780_l_func(conf, 1, 0, data, 45);
     8e0:	0d e2       	ldi	r16, 0x2D	; 45
     8e2:	10 e0       	ldi	r17, 0x00	; 0
     8e4:	40 e0       	ldi	r20, 0x00	; 0
     8e6:	61 e0       	ldi	r22, 0x01	; 1
     8e8:	a2 dd       	rcall	.-1212   	; 0x42e <_hd44780_l_func>
}
     8ea:	1f 91       	pop	r17
     8ec:	0f 91       	pop	r16
     8ee:	08 95       	ret

000008f0 <hd44780_l_init>:

void hd44780_l_init(const struct hd44780_l_conf* conf, uint8_t n, uint8_t f, uint8_t id, uint8_t s) {
     8f0:	0f 93       	push	r16
     8f2:	1f 93       	push	r17
     8f4:	cf 93       	push	r28
     8f6:	df 93       	push	r29
     8f8:	ec 01       	movw	r28, r24
     8fa:	12 2f       	mov	r17, r18
	#else
		//round up by default
		__ticks_dc = (uint32_t)(ceil(fabs(__tmp)));
	#endif

	__builtin_avr_delay_cycles(__ticks_dc);
     8fc:	8f ef       	ldi	r24, 0xFF	; 255
     8fe:	97 ed       	ldi	r25, 0xD7	; 215
     900:	01 97       	sbiw	r24, 0x01	; 1
     902:	f1 f7       	brne	.-4      	; 0x900 <hd44780_l_init+0x10>
     904:	00 c0       	rjmp	.+0      	; 0x906 <hd44780_l_init+0x16>
     906:	00 00       	nop
 * Clears all pins.
 *
 * @param conf	HD44780 configuration
 */
static inline void _hd44780_l_ca(const struct hd44780_l_conf* conf) {
	*(conf->rs_port) &= ~_BV(conf->rs_i);
     908:	eb 85       	ldd	r30, Y+11	; 0x0b
     90a:	fc 85       	ldd	r31, Y+12	; 0x0c
     90c:	50 81       	ld	r21, Z
     90e:	81 e0       	ldi	r24, 0x01	; 1
     910:	90 e0       	ldi	r25, 0x00	; 0
     912:	9c 01       	movw	r18, r24
     914:	08 80       	ld	r0, Y
     916:	02 c0       	rjmp	.+4      	; 0x91c <hd44780_l_init+0x2c>
     918:	22 0f       	add	r18, r18
     91a:	33 1f       	adc	r19, r19
     91c:	0a 94       	dec	r0
     91e:	e2 f7       	brpl	.-8      	; 0x918 <hd44780_l_init+0x28>
     920:	20 95       	com	r18
     922:	25 23       	and	r18, r21
     924:	20 83       	st	Z, r18
	*(conf->rw_port) &= ~_BV(conf->rw_i);
     926:	ed 85       	ldd	r30, Y+13	; 0x0d
     928:	fe 85       	ldd	r31, Y+14	; 0x0e
     92a:	50 81       	ld	r21, Z
     92c:	9c 01       	movw	r18, r24
     92e:	09 80       	ldd	r0, Y+1	; 0x01
     930:	02 c0       	rjmp	.+4      	; 0x936 <hd44780_l_init+0x46>
     932:	22 0f       	add	r18, r18
     934:	33 1f       	adc	r19, r19
     936:	0a 94       	dec	r0
     938:	e2 f7       	brpl	.-8      	; 0x932 <hd44780_l_init+0x42>
     93a:	20 95       	com	r18
     93c:	25 23       	and	r18, r21
     93e:	20 83       	st	Z, r18
	*(conf->en_port) &= ~_BV(conf->en_i);
     940:	ef 85       	ldd	r30, Y+15	; 0x0f
     942:	f8 89       	ldd	r31, Y+16	; 0x10
     944:	50 81       	ld	r21, Z
     946:	9c 01       	movw	r18, r24
     948:	0a 80       	ldd	r0, Y+2	; 0x02
     94a:	02 c0       	rjmp	.+4      	; 0x950 <hd44780_l_init+0x60>
     94c:	22 0f       	add	r18, r18
     94e:	33 1f       	adc	r19, r19
     950:	0a 94       	dec	r0
     952:	e2 f7       	brpl	.-8      	; 0x94c <hd44780_l_init+0x5c>
     954:	20 95       	com	r18
     956:	25 23       	and	r18, r21
     958:	20 83       	st	Z, r18
	*(conf->db7_port) &= ~_BV(conf->db7_i);
     95a:	e9 89       	ldd	r30, Y+17	; 0x11
     95c:	fa 89       	ldd	r31, Y+18	; 0x12
     95e:	50 81       	ld	r21, Z
     960:	9c 01       	movw	r18, r24
     962:	0b 80       	ldd	r0, Y+3	; 0x03
     964:	02 c0       	rjmp	.+4      	; 0x96a <hd44780_l_init+0x7a>
     966:	22 0f       	add	r18, r18
     968:	33 1f       	adc	r19, r19
     96a:	0a 94       	dec	r0
     96c:	e2 f7       	brpl	.-8      	; 0x966 <hd44780_l_init+0x76>
     96e:	20 95       	com	r18
     970:	25 23       	and	r18, r21
     972:	20 83       	st	Z, r18
	*(conf->db6_port) &= ~_BV(conf->db6_i);
     974:	eb 89       	ldd	r30, Y+19	; 0x13
     976:	fc 89       	ldd	r31, Y+20	; 0x14
     978:	50 81       	ld	r21, Z
     97a:	9c 01       	movw	r18, r24
     97c:	0c 80       	ldd	r0, Y+4	; 0x04
     97e:	02 c0       	rjmp	.+4      	; 0x984 <hd44780_l_init+0x94>
     980:	22 0f       	add	r18, r18
     982:	33 1f       	adc	r19, r19
     984:	0a 94       	dec	r0
     986:	e2 f7       	brpl	.-8      	; 0x980 <hd44780_l_init+0x90>
     988:	20 95       	com	r18
     98a:	25 23       	and	r18, r21
     98c:	20 83       	st	Z, r18
	*(conf->db5_port) &= ~_BV(conf->db5_i);
     98e:	ed 89       	ldd	r30, Y+21	; 0x15
     990:	fe 89       	ldd	r31, Y+22	; 0x16
     992:	50 81       	ld	r21, Z
     994:	9c 01       	movw	r18, r24
     996:	0d 80       	ldd	r0, Y+5	; 0x05
     998:	02 c0       	rjmp	.+4      	; 0x99e <hd44780_l_init+0xae>
     99a:	22 0f       	add	r18, r18
     99c:	33 1f       	adc	r19, r19
     99e:	0a 94       	dec	r0
     9a0:	e2 f7       	brpl	.-8      	; 0x99a <hd44780_l_init+0xaa>
     9a2:	20 95       	com	r18
     9a4:	25 23       	and	r18, r21
     9a6:	20 83       	st	Z, r18
	*(conf->db4_port) &= ~_BV(conf->db4_i);
     9a8:	ef 89       	ldd	r30, Y+23	; 0x17
     9aa:	f8 8d       	ldd	r31, Y+24	; 0x18
     9ac:	20 81       	ld	r18, Z
     9ae:	0e 80       	ldd	r0, Y+6	; 0x06
     9b0:	02 c0       	rjmp	.+4      	; 0x9b6 <hd44780_l_init+0xc6>
     9b2:	88 0f       	add	r24, r24
     9b4:	99 1f       	adc	r25, r25
     9b6:	0a 94       	dec	r0
     9b8:	e2 f7       	brpl	.-8      	; 0x9b2 <hd44780_l_init+0xc2>
     9ba:	80 95       	com	r24
     9bc:	82 23       	and	r24, r18
     9be:	80 83       	st	Z, r24
	
	if (conf->dl == HD44780_L_FS_DL_8BIT) {
     9c0:	8b a1       	ldd	r24, Y+35	; 0x23
     9c2:	81 30       	cpi	r24, 0x01	; 1
     9c4:	a9 f5       	brne	.+106    	; 0xa30 <hd44780_l_init+0x140>
		*(conf->db3_port) &= ~_BV(conf->db3_i);
     9c6:	e9 8d       	ldd	r30, Y+25	; 0x19
     9c8:	fa 8d       	ldd	r31, Y+26	; 0x1a
     9ca:	50 81       	ld	r21, Z
     9cc:	81 e0       	ldi	r24, 0x01	; 1
     9ce:	90 e0       	ldi	r25, 0x00	; 0
     9d0:	9c 01       	movw	r18, r24
     9d2:	0f 80       	ldd	r0, Y+7	; 0x07
     9d4:	02 c0       	rjmp	.+4      	; 0x9da <hd44780_l_init+0xea>
     9d6:	22 0f       	add	r18, r18
     9d8:	33 1f       	adc	r19, r19
     9da:	0a 94       	dec	r0
     9dc:	e2 f7       	brpl	.-8      	; 0x9d6 <hd44780_l_init+0xe6>
     9de:	20 95       	com	r18
     9e0:	25 23       	and	r18, r21
     9e2:	20 83       	st	Z, r18
		*(conf->db2_port) &= ~_BV(conf->db2_i);
     9e4:	eb 8d       	ldd	r30, Y+27	; 0x1b
     9e6:	fc 8d       	ldd	r31, Y+28	; 0x1c
     9e8:	50 81       	ld	r21, Z
     9ea:	9c 01       	movw	r18, r24
     9ec:	08 84       	ldd	r0, Y+8	; 0x08
     9ee:	02 c0       	rjmp	.+4      	; 0x9f4 <hd44780_l_init+0x104>
     9f0:	22 0f       	add	r18, r18
     9f2:	33 1f       	adc	r19, r19
     9f4:	0a 94       	dec	r0
     9f6:	e2 f7       	brpl	.-8      	; 0x9f0 <hd44780_l_init+0x100>
     9f8:	20 95       	com	r18
     9fa:	25 23       	and	r18, r21
     9fc:	20 83       	st	Z, r18
		*(conf->db1_port) &= ~_BV(conf->db1_i);
     9fe:	ed 8d       	ldd	r30, Y+29	; 0x1d
     a00:	fe 8d       	ldd	r31, Y+30	; 0x1e
     a02:	50 81       	ld	r21, Z
     a04:	9c 01       	movw	r18, r24
     a06:	09 84       	ldd	r0, Y+9	; 0x09
     a08:	02 c0       	rjmp	.+4      	; 0xa0e <hd44780_l_init+0x11e>
     a0a:	22 0f       	add	r18, r18
     a0c:	33 1f       	adc	r19, r19
     a0e:	0a 94       	dec	r0
     a10:	e2 f7       	brpl	.-8      	; 0xa0a <hd44780_l_init+0x11a>
     a12:	20 95       	com	r18
     a14:	25 23       	and	r18, r21
     a16:	20 83       	st	Z, r18
		*(conf->db0_port) &= ~_BV(conf->db0_i);
     a18:	ef 8d       	ldd	r30, Y+31	; 0x1f
     a1a:	f8 a1       	ldd	r31, Y+32	; 0x20
     a1c:	20 81       	ld	r18, Z
     a1e:	0a 84       	ldd	r0, Y+10	; 0x0a
     a20:	02 c0       	rjmp	.+4      	; 0xa26 <hd44780_l_init+0x136>
     a22:	88 0f       	add	r24, r24
     a24:	99 1f       	adc	r25, r25
     a26:	0a 94       	dec	r0
     a28:	e2 f7       	brpl	.-8      	; 0xa22 <hd44780_l_init+0x132>
     a2a:	80 95       	com	r24
     a2c:	82 23       	and	r24, r18
     a2e:	80 83       	st	Z, r24
	
	/* Clear all pins: */
	_hd44780_l_ca(conf);
	
	/* Special function set (for data length): */
	*(conf->db5_port) |= _BV(conf->db5_i);
     a30:	ed 89       	ldd	r30, Y+21	; 0x15
     a32:	fe 89       	ldd	r31, Y+22	; 0x16
     a34:	50 81       	ld	r21, Z
     a36:	81 e0       	ldi	r24, 0x01	; 1
     a38:	90 e0       	ldi	r25, 0x00	; 0
     a3a:	9c 01       	movw	r18, r24
     a3c:	0d 80       	ldd	r0, Y+5	; 0x05
     a3e:	02 c0       	rjmp	.+4      	; 0xa44 <hd44780_l_init+0x154>
     a40:	22 0f       	add	r18, r18
     a42:	33 1f       	adc	r19, r19
     a44:	0a 94       	dec	r0
     a46:	e2 f7       	brpl	.-8      	; 0xa40 <hd44780_l_init+0x150>
     a48:	25 2b       	or	r18, r21
     a4a:	20 83       	st	Z, r18
	*(conf->db4_port) |= _BV(conf->db4_i);
     a4c:	ef 89       	ldd	r30, Y+23	; 0x17
     a4e:	f8 8d       	ldd	r31, Y+24	; 0x18
     a50:	50 81       	ld	r21, Z
     a52:	9c 01       	movw	r18, r24
     a54:	0e 80       	ldd	r0, Y+6	; 0x06
     a56:	02 c0       	rjmp	.+4      	; 0xa5c <hd44780_l_init+0x16c>
     a58:	22 0f       	add	r18, r18
     a5a:	33 1f       	adc	r19, r19
     a5c:	0a 94       	dec	r0
     a5e:	e2 f7       	brpl	.-8      	; 0xa58 <hd44780_l_init+0x168>
     a60:	25 2b       	or	r18, r21
     a62:	20 83       	st	Z, r18
	#else
		//round up by default
		__ticks_dc = (uint32_t)(ceil(fabs(__tmp)));
	#endif

	__builtin_avr_delay_cycles(__ticks_dc);
     a64:	00 c0       	rjmp	.+0      	; 0xa66 <hd44780_l_init+0x176>
static inline void _hd44780_l_ec(const struct hd44780_l_conf* conf) {
	/* Max write setup time (data) is 80 ns: */
	_delay_us(0.08); /* _delay_us overhead is probably > 80 ns here... */
	
	/* Set EN: */
	*(conf->en_port) |= _BV(conf->en_i);
     a66:	ef 85       	ldd	r30, Y+15	; 0x0f
     a68:	f8 89       	ldd	r31, Y+16	; 0x10
     a6a:	50 81       	ld	r21, Z
     a6c:	9c 01       	movw	r18, r24
     a6e:	0a 80       	ldd	r0, Y+2	; 0x02
     a70:	02 c0       	rjmp	.+4      	; 0xa76 <hd44780_l_init+0x186>
     a72:	22 0f       	add	r18, r18
     a74:	33 1f       	adc	r19, r19
     a76:	0a 94       	dec	r0
     a78:	e2 f7       	brpl	.-8      	; 0xa72 <hd44780_l_init+0x182>
     a7a:	25 2b       	or	r18, r21
     a7c:	20 83       	st	Z, r18
     a7e:	00 c0       	rjmp	.+0      	; 0xa80 <hd44780_l_init+0x190>
     a80:	00 c0       	rjmp	.+0      	; 0xa82 <hd44780_l_init+0x192>
	
	/* Wait for EN pulse width (high level), 230 ns: */
	_delay_us(0.230);
	
	/* Clear EN: */
	*(conf->en_port) &= ~_BV(conf->en_i);
     a82:	ef 85       	ldd	r30, Y+15	; 0x0f
     a84:	f8 89       	ldd	r31, Y+16	; 0x10
     a86:	50 81       	ld	r21, Z
     a88:	9c 01       	movw	r18, r24
     a8a:	0a 80       	ldd	r0, Y+2	; 0x02
     a8c:	02 c0       	rjmp	.+4      	; 0xa92 <hd44780_l_init+0x1a2>
     a8e:	22 0f       	add	r18, r18
     a90:	33 1f       	adc	r19, r19
     a92:	0a 94       	dec	r0
     a94:	e2 f7       	brpl	.-8      	; 0xa8e <hd44780_l_init+0x19e>
     a96:	20 95       	com	r18
     a98:	25 23       	and	r18, r21
     a9a:	20 83       	st	Z, r18
     a9c:	00 c0       	rjmp	.+0      	; 0xa9e <hd44780_l_init+0x1ae>
     a9e:	00 c0       	rjmp	.+0      	; 0xaa0 <hd44780_l_init+0x1b0>
	#else
		//round up by default
		__ticks_dc = (uint32_t)(ceil(fabs(__tmp)));
	#endif

	__builtin_avr_delay_cycles(__ticks_dc);
     aa0:	ea e0       	ldi	r30, 0x0A	; 10
     aa2:	fb e3       	ldi	r31, 0x3B	; 59
     aa4:	31 97       	sbiw	r30, 0x01	; 1
     aa6:	f1 f7       	brne	.-4      	; 0xaa4 <hd44780_l_init+0x1b4>
	#else
		//round up by default
		__ticks_dc = (uint32_t)(ceil(fabs(__tmp)));
	#endif

	__builtin_avr_delay_cycles(__ticks_dc);
     aa8:	00 c0       	rjmp	.+0      	; 0xaaa <hd44780_l_init+0x1ba>
static inline void _hd44780_l_ec(const struct hd44780_l_conf* conf) {
	/* Max write setup time (data) is 80 ns: */
	_delay_us(0.08); /* _delay_us overhead is probably > 80 ns here... */
	
	/* Set EN: */
	*(conf->en_port) |= _BV(conf->en_i);
     aaa:	ef 85       	ldd	r30, Y+15	; 0x0f
     aac:	f8 89       	ldd	r31, Y+16	; 0x10
     aae:	50 81       	ld	r21, Z
     ab0:	9c 01       	movw	r18, r24
     ab2:	0a 80       	ldd	r0, Y+2	; 0x02
     ab4:	02 c0       	rjmp	.+4      	; 0xaba <hd44780_l_init+0x1ca>
     ab6:	22 0f       	add	r18, r18
     ab8:	33 1f       	adc	r19, r19
     aba:	0a 94       	dec	r0
     abc:	e2 f7       	brpl	.-8      	; 0xab6 <hd44780_l_init+0x1c6>
     abe:	25 2b       	or	r18, r21
     ac0:	20 83       	st	Z, r18
     ac2:	00 c0       	rjmp	.+0      	; 0xac4 <hd44780_l_init+0x1d4>
     ac4:	00 c0       	rjmp	.+0      	; 0xac6 <hd44780_l_init+0x1d6>
	
	/* Wait for EN pulse width (high level), 230 ns: */
	_delay_us(0.230);
	
	/* Clear EN: */
	*(conf->en_port) &= ~_BV(conf->en_i);
     ac6:	ef 85       	ldd	r30, Y+15	; 0x0f
     ac8:	f8 89       	ldd	r31, Y+16	; 0x10
     aca:	50 81       	ld	r21, Z
     acc:	9c 01       	movw	r18, r24
     ace:	0a 80       	ldd	r0, Y+2	; 0x02
     ad0:	02 c0       	rjmp	.+4      	; 0xad6 <hd44780_l_init+0x1e6>
     ad2:	22 0f       	add	r18, r18
     ad4:	33 1f       	adc	r19, r19
     ad6:	0a 94       	dec	r0
     ad8:	e2 f7       	brpl	.-8      	; 0xad2 <hd44780_l_init+0x1e2>
     ada:	20 95       	com	r18
     adc:	25 23       	and	r18, r21
     ade:	20 83       	st	Z, r18
     ae0:	00 c0       	rjmp	.+0      	; 0xae2 <hd44780_l_init+0x1f2>
     ae2:	00 c0       	rjmp	.+0      	; 0xae4 <hd44780_l_init+0x1f4>
     ae4:	e0 e7       	ldi	r30, 0x70	; 112
     ae6:	f1 e0       	ldi	r31, 0x01	; 1
     ae8:	31 97       	sbiw	r30, 0x01	; 1
     aea:	f1 f7       	brne	.-4      	; 0xae8 <hd44780_l_init+0x1f8>
     aec:	00 c0       	rjmp	.+0      	; 0xaee <hd44780_l_init+0x1fe>
     aee:	00 c0       	rjmp	.+0      	; 0xaf0 <hd44780_l_init+0x200>
static inline void _hd44780_l_ec(const struct hd44780_l_conf* conf) {
	/* Max write setup time (data) is 80 ns: */
	_delay_us(0.08); /* _delay_us overhead is probably > 80 ns here... */
	
	/* Set EN: */
	*(conf->en_port) |= _BV(conf->en_i);
     af0:	ef 85       	ldd	r30, Y+15	; 0x0f
     af2:	f8 89       	ldd	r31, Y+16	; 0x10
     af4:	50 81       	ld	r21, Z
     af6:	9c 01       	movw	r18, r24
     af8:	0a 80       	ldd	r0, Y+2	; 0x02
     afa:	02 c0       	rjmp	.+4      	; 0xb00 <hd44780_l_init+0x210>
     afc:	22 0f       	add	r18, r18
     afe:	33 1f       	adc	r19, r19
     b00:	0a 94       	dec	r0
     b02:	e2 f7       	brpl	.-8      	; 0xafc <hd44780_l_init+0x20c>
     b04:	25 2b       	or	r18, r21
     b06:	20 83       	st	Z, r18
     b08:	00 c0       	rjmp	.+0      	; 0xb0a <hd44780_l_init+0x21a>
     b0a:	00 c0       	rjmp	.+0      	; 0xb0c <hd44780_l_init+0x21c>
	
	/* Wait for EN pulse width (high level), 230 ns: */
	_delay_us(0.230);
	
	/* Clear EN: */
	*(conf->en_port) &= ~_BV(conf->en_i);
     b0c:	ef 85       	ldd	r30, Y+15	; 0x0f
     b0e:	f8 89       	ldd	r31, Y+16	; 0x10
     b10:	20 81       	ld	r18, Z
     b12:	0a 80       	ldd	r0, Y+2	; 0x02
     b14:	02 c0       	rjmp	.+4      	; 0xb1a <hd44780_l_init+0x22a>
     b16:	88 0f       	add	r24, r24
     b18:	99 1f       	adc	r25, r25
     b1a:	0a 94       	dec	r0
     b1c:	e2 f7       	brpl	.-8      	; 0xb16 <hd44780_l_init+0x226>
     b1e:	80 95       	com	r24
     b20:	82 23       	and	r24, r18
     b22:	80 83       	st	Z, r24
     b24:	00 c0       	rjmp	.+0      	; 0xb26 <hd44780_l_init+0x236>
     b26:	00 c0       	rjmp	.+0      	; 0xb28 <hd44780_l_init+0x238>
	
	/* Special function set (for data length): */
	_hd44780_l_ec(conf);
	
	/* 4-bit specific: */
	if (conf->dl == HD44780_L_FS_DL_4BIT) {
     b28:	8b a1       	ldd	r24, Y+35	; 0x23
     b2a:	81 11       	cpse	r24, r1
     b2c:	2c c0       	rjmp	.+88     	; 0xb86 <hd44780_l_init+0x296>
		*(conf->db4_port) &= ~_BV(conf->db4_i);
     b2e:	ef 89       	ldd	r30, Y+23	; 0x17
     b30:	f8 8d       	ldd	r31, Y+24	; 0x18
     b32:	50 81       	ld	r21, Z
     b34:	81 e0       	ldi	r24, 0x01	; 1
     b36:	90 e0       	ldi	r25, 0x00	; 0
     b38:	9c 01       	movw	r18, r24
     b3a:	0e 80       	ldd	r0, Y+6	; 0x06
     b3c:	02 c0       	rjmp	.+4      	; 0xb42 <hd44780_l_init+0x252>
     b3e:	22 0f       	add	r18, r18
     b40:	33 1f       	adc	r19, r19
     b42:	0a 94       	dec	r0
     b44:	e2 f7       	brpl	.-8      	; 0xb3e <hd44780_l_init+0x24e>
     b46:	20 95       	com	r18
     b48:	25 23       	and	r18, r21
     b4a:	20 83       	st	Z, r18
     b4c:	00 c0       	rjmp	.+0      	; 0xb4e <hd44780_l_init+0x25e>
static inline void _hd44780_l_ec(const struct hd44780_l_conf* conf) {
	/* Max write setup time (data) is 80 ns: */
	_delay_us(0.08); /* _delay_us overhead is probably > 80 ns here... */
	
	/* Set EN: */
	*(conf->en_port) |= _BV(conf->en_i);
     b4e:	ef 85       	ldd	r30, Y+15	; 0x0f
     b50:	f8 89       	ldd	r31, Y+16	; 0x10
     b52:	50 81       	ld	r21, Z
     b54:	9c 01       	movw	r18, r24
     b56:	0a 80       	ldd	r0, Y+2	; 0x02
     b58:	02 c0       	rjmp	.+4      	; 0xb5e <hd44780_l_init+0x26e>
     b5a:	22 0f       	add	r18, r18
     b5c:	33 1f       	adc	r19, r19
     b5e:	0a 94       	dec	r0
     b60:	e2 f7       	brpl	.-8      	; 0xb5a <hd44780_l_init+0x26a>
     b62:	25 2b       	or	r18, r21
     b64:	20 83       	st	Z, r18
     b66:	00 c0       	rjmp	.+0      	; 0xb68 <hd44780_l_init+0x278>
     b68:	00 c0       	rjmp	.+0      	; 0xb6a <hd44780_l_init+0x27a>
	
	/* Wait for EN pulse width (high level), 230 ns: */
	_delay_us(0.230);
	
	/* Clear EN: */
	*(conf->en_port) &= ~_BV(conf->en_i);
     b6a:	ef 85       	ldd	r30, Y+15	; 0x0f
     b6c:	f8 89       	ldd	r31, Y+16	; 0x10
     b6e:	20 81       	ld	r18, Z
     b70:	0a 80       	ldd	r0, Y+2	; 0x02
     b72:	02 c0       	rjmp	.+4      	; 0xb78 <hd44780_l_init+0x288>
     b74:	88 0f       	add	r24, r24
     b76:	99 1f       	adc	r25, r25
     b78:	0a 94       	dec	r0
     b7a:	e2 f7       	brpl	.-8      	; 0xb74 <hd44780_l_init+0x284>
     b7c:	80 95       	com	r24
     b7e:	82 23       	and	r24, r18
     b80:	80 83       	st	Z, r24
     b82:	00 c0       	rjmp	.+0      	; 0xb84 <hd44780_l_init+0x294>
     b84:	00 c0       	rjmp	.+0      	; 0xb86 <hd44780_l_init+0x296>
		*(conf->db4_port) &= ~_BV(conf->db4_i);
		_hd44780_l_ec(conf);
	}
	
	/* Remaining process: */
	hd44780_l_fs(conf, conf->dl, n, f);
     b86:	24 2f       	mov	r18, r20
     b88:	46 2f       	mov	r20, r22
     b8a:	6b a1       	ldd	r22, Y+35	; 0x23
     b8c:	ce 01       	movw	r24, r28
     b8e:	8f de       	rcall	.-738    	; 0x8ae <hd44780_l_fs>
	hd44780_l_disp(conf, HD44780_L_DISP_D_OFF, HD44780_L_DISP_C_OFF, HD44780_L_DISP_B_OFF);
     b90:	20 e0       	ldi	r18, 0x00	; 0
     b92:	40 e0       	ldi	r20, 0x00	; 0
     b94:	60 e0       	ldi	r22, 0x00	; 0
     b96:	ce 01       	movw	r24, r28
     b98:	75 de       	rcall	.-790    	; 0x884 <hd44780_l_disp>
	hd44780_l_clear_disp(conf);
     b9a:	ce 01       	movw	r24, r28
     b9c:	56 de       	rcall	.-852    	; 0x84a <hd44780_l_clear_disp>
	hd44780_l_ems(conf, id, s);
     b9e:	40 2f       	mov	r20, r16
     ba0:	61 2f       	mov	r22, r17
     ba2:	ce 01       	movw	r24, r28
     ba4:	5d de       	rcall	.-838    	; 0x860 <hd44780_l_ems>
     ba6:	df 91       	pop	r29
     ba8:	cf 91       	pop	r28
     baa:	1f 91       	pop	r17
     bac:	0f 91       	pop	r16
     bae:	08 95       	ret

00000bb0 <SPI_Init_Master>:
 void RX_wheel_data()
 {
	 wanted_data = wr;
	 Slave_Select(Control_Slave);
	 TX_Protocol(wr);
	 Slave_Select(No_Slave);
     bb0:	88 eb       	ldi	r24, 0xB8	; 184
     bb2:	84 b9       	out	0x04, r24	; 4
     bb4:	53 98       	cbi	0x0a, 3	; 10
     bb6:	85 b1       	in	r24, 0x05	; 5
     bb8:	88 61       	ori	r24, 0x18	; 24
     bba:	85 b9       	out	0x05, r24	; 5
     bbc:	8c b5       	in	r24, 0x2c	; 44
     bbe:	83 65       	ori	r24, 0x53	; 83
     bc0:	8c bd       	out	0x2c, r24	; 44
     bc2:	8c e3       	ldi	r24, 0x3C	; 60
     bc4:	80 93 69 00 	sts	0x0069, r24
     bc8:	86 e0       	ldi	r24, 0x06	; 6
     bca:	8d bb       	out	0x1d, r24	; 29
     bcc:	78 94       	sei
     bce:	14 bc       	out	0x24, r1	; 36
     bd0:	95 e0       	ldi	r25, 0x05	; 5
     bd2:	95 bd       	out	0x25, r25	; 37
     bd4:	80 93 6e 00 	sts	0x006E, r24
     bd8:	31 e0       	ldi	r19, 0x01	; 1
     bda:	30 93 7f 01 	sts	0x017F, r19
     bde:	22 e0       	ldi	r18, 0x02	; 2
     be0:	20 93 86 01 	sts	0x0186, r18
     be4:	10 92 84 01 	sts	0x0184, r1
     be8:	30 93 4d 01 	sts	0x014D, r19
     bec:	20 93 85 01 	sts	0x0185, r18
     bf0:	23 e0       	ldi	r18, 0x03	; 3
     bf2:	20 93 4c 01 	sts	0x014C, r18
     bf6:	24 e0       	ldi	r18, 0x04	; 4
     bf8:	20 93 80 01 	sts	0x0180, r18
     bfc:	90 93 59 01 	sts	0x0159, r25
     c00:	80 93 81 01 	sts	0x0181, r24
     c04:	87 e0       	ldi	r24, 0x07	; 7
     c06:	80 93 4f 01 	sts	0x014F, r24
     c0a:	8a e7       	ldi	r24, 0x7A	; 122
     c0c:	87 bd       	out	0x27, r24	; 39
     c0e:	8d e7       	ldi	r24, 0x7D	; 125
     c10:	88 bd       	out	0x28, r24	; 40
     c12:	16 bc       	out	0x26, r1	; 38
     c14:	08 95       	ret

00000c16 <Master_TX>:
     c16:	cf 93       	push	r28
     c18:	df 93       	push	r29
     c1a:	1f 92       	push	r1
     c1c:	cd b7       	in	r28, 0x3d	; 61
     c1e:	de b7       	in	r29, 0x3e	; 62
     c20:	89 83       	std	Y+1, r24	; 0x01
     c22:	89 81       	ldd	r24, Y+1	; 0x01
     c24:	8e bd       	out	0x2e, r24	; 46
     c26:	0d b4       	in	r0, 0x2d	; 45
     c28:	07 fe       	sbrs	r0, 7
     c2a:	fd cf       	rjmp	.-6      	; 0xc26 <Master_TX+0x10>
     c2c:	0f 90       	pop	r0
     c2e:	df 91       	pop	r29
     c30:	cf 91       	pop	r28
     c32:	08 95       	ret

00000c34 <Master_RX>:
     c34:	cf 93       	push	r28
     c36:	df 93       	push	r29
     c38:	1f 92       	push	r1
     c3a:	cd b7       	in	r28, 0x3d	; 61
     c3c:	de b7       	in	r29, 0x3e	; 62
     c3e:	89 83       	std	Y+1, r24	; 0x01
     c40:	89 81       	ldd	r24, Y+1	; 0x01
     c42:	8e bd       	out	0x2e, r24	; 46
     c44:	0d b4       	in	r0, 0x2d	; 45
     c46:	07 fe       	sbrs	r0, 7
     c48:	fd cf       	rjmp	.-6      	; 0xc44 <Master_RX+0x10>
     c4a:	8e b5       	in	r24, 0x2e	; 46
     c4c:	0f 90       	pop	r0
     c4e:	df 91       	pop	r29
     c50:	cf 91       	pop	r28
     c52:	08 95       	ret

00000c54 <Slave_Select>:
     c54:	cf 93       	push	r28
     c56:	df 93       	push	r29
     c58:	1f 92       	push	r1
     c5a:	cd b7       	in	r28, 0x3d	; 61
     c5c:	de b7       	in	r29, 0x3e	; 62
     c5e:	89 83       	std	Y+1, r24	; 0x01
     c60:	99 81       	ldd	r25, Y+1	; 0x01
     c62:	80 91 86 01 	lds	r24, 0x0186
     c66:	98 13       	cpse	r25, r24
     c68:	03 c0       	rjmp	.+6      	; 0xc70 <Slave_Select+0x1c>
     c6a:	2b 9a       	sbi	0x05, 3	; 5
     c6c:	2c 98       	cbi	0x05, 4	; 5
     c6e:	0a c0       	rjmp	.+20     	; 0xc84 <Slave_Select+0x30>
     c70:	99 81       	ldd	r25, Y+1	; 0x01
     c72:	80 91 7f 01 	lds	r24, 0x017F
     c76:	98 13       	cpse	r25, r24
     c78:	03 c0       	rjmp	.+6      	; 0xc80 <Slave_Select+0x2c>
     c7a:	2c 9a       	sbi	0x05, 4	; 5
     c7c:	2b 98       	cbi	0x05, 3	; 5
     c7e:	02 c0       	rjmp	.+4      	; 0xc84 <Slave_Select+0x30>
     c80:	2c 9a       	sbi	0x05, 4	; 5
     c82:	2b 9a       	sbi	0x05, 3	; 5
     c84:	0f 90       	pop	r0
     c86:	df 91       	pop	r29
     c88:	cf 91       	pop	r28
     c8a:	08 95       	ret

00000c8c <TX_Protocol>:
     c8c:	90 91 4d 01 	lds	r25, 0x014D
     c90:	89 13       	cpse	r24, r25
     c92:	02 c0       	rjmp	.+4      	; 0xc98 <TX_Protocol+0xc>
     c94:	84 e8       	ldi	r24, 0x84	; 132
     c96:	bf cf       	rjmp	.-130    	; 0xc16 <Master_TX>
     c98:	90 91 4c 01 	lds	r25, 0x014C
     c9c:	89 13       	cpse	r24, r25
     c9e:	02 c0       	rjmp	.+4      	; 0xca4 <TX_Protocol+0x18>
     ca0:	85 e8       	ldi	r24, 0x85	; 133
     ca2:	b9 cf       	rjmp	.-142    	; 0xc16 <Master_TX>
     ca4:	90 91 59 01 	lds	r25, 0x0159
     ca8:	89 13       	cpse	r24, r25
     caa:	02 c0       	rjmp	.+4      	; 0xcb0 <TX_Protocol+0x24>
     cac:	86 e8       	ldi	r24, 0x86	; 134
     cae:	b3 cf       	rjmp	.-154    	; 0xc16 <Master_TX>
     cb0:	90 91 85 01 	lds	r25, 0x0185
     cb4:	89 13       	cpse	r24, r25
     cb6:	02 c0       	rjmp	.+4      	; 0xcbc <TX_Protocol+0x30>
     cb8:	84 e0       	ldi	r24, 0x04	; 4
     cba:	ad cf       	rjmp	.-166    	; 0xc16 <Master_TX>
     cbc:	90 91 80 01 	lds	r25, 0x0180
     cc0:	89 13       	cpse	r24, r25
     cc2:	02 c0       	rjmp	.+4      	; 0xcc8 <TX_Protocol+0x3c>
     cc4:	85 e0       	ldi	r24, 0x05	; 5
     cc6:	a7 cf       	rjmp	.-178    	; 0xc16 <Master_TX>
     cc8:	90 91 81 01 	lds	r25, 0x0181
     ccc:	89 13       	cpse	r24, r25
     cce:	02 c0       	rjmp	.+4      	; 0xcd4 <TX_Protocol+0x48>
     cd0:	86 e0       	ldi	r24, 0x06	; 6
     cd2:	a1 cf       	rjmp	.-190    	; 0xc16 <Master_TX>
     cd4:	90 91 4f 01 	lds	r25, 0x014F
     cd8:	89 13       	cpse	r24, r25
     cda:	02 c0       	rjmp	.+4      	; 0xce0 <TX_Protocol+0x54>
     cdc:	8b ea       	ldi	r24, 0xAB	; 171
     cde:	9b cf       	rjmp	.-202    	; 0xc16 <Master_TX>
     ce0:	08 95       	ret

00000ce2 <TX_sensor_data>:
     ce2:	80 91 86 01 	lds	r24, 0x0186
     ce6:	b6 df       	rcall	.-148    	; 0xc54 <Slave_Select>
     ce8:	80 91 4d 01 	lds	r24, 0x014D
     cec:	cf df       	rcall	.-98     	; 0xc8c <TX_Protocol>
     cee:	80 91 84 01 	lds	r24, 0x0184
     cf2:	b0 df       	rcall	.-160    	; 0xc54 <Slave_Select>
     cf4:	80 91 86 01 	lds	r24, 0x0186
     cf8:	ad df       	rcall	.-166    	; 0xc54 <Slave_Select>
     cfa:	80 91 3f 01 	lds	r24, 0x013F
     cfe:	88 23       	and	r24, r24
     d00:	11 f0       	breq	.+4      	; 0xd06 <TX_sensor_data+0x24>
     d02:	88 e0       	ldi	r24, 0x08	; 8
     d04:	88 cf       	rjmp	.-240    	; 0xc16 <Master_TX>
     d06:	80 91 3e 01 	lds	r24, 0x013E
     d0a:	85 cf       	rjmp	.-246    	; 0xc16 <Master_TX>

00000d0c <RX_sensor_data>:
     d0c:	80 91 85 01 	lds	r24, 0x0185
     d10:	80 93 4b 01 	sts	0x014B, r24
     d14:	80 91 7f 01 	lds	r24, 0x017F
     d18:	9d df       	rcall	.-198    	; 0xc54 <Slave_Select>
     d1a:	80 91 85 01 	lds	r24, 0x0185
     d1e:	b6 df       	rcall	.-148    	; 0xc8c <TX_Protocol>
     d20:	80 91 84 01 	lds	r24, 0x0184
     d24:	97 cf       	rjmp	.-210    	; 0xc54 <Slave_Select>

00000d26 <TX_wheel_data>:
     d26:	80 91 86 01 	lds	r24, 0x0186
     d2a:	94 df       	rcall	.-216    	; 0xc54 <Slave_Select>
     d2c:	80 91 4c 01 	lds	r24, 0x014C
     d30:	ad df       	rcall	.-166    	; 0xc8c <TX_Protocol>
     d32:	80 91 4e 01 	lds	r24, 0x014E
     d36:	6f cf       	rjmp	.-290    	; 0xc16 <Master_TX>

00000d38 <TX_arm_data>:
 }
 
 void TX_arm_data()
{
	Slave_Select(Control_Slave);
     d38:	80 91 86 01 	lds	r24, 0x0186
     d3c:	8b df       	rcall	.-234    	; 0xc54 <Slave_Select>
	TX_Protocol(as);
     d3e:	80 91 59 01 	lds	r24, 0x0159
     d42:	a4 df       	rcall	.-184    	; 0xc8c <TX_Protocol>
	Master_TX(robot_arm_data);
     d44:	80 91 3c 01 	lds	r24, 0x013C
     d48:	66 cf       	rjmp	.-308    	; 0xc16 <Master_TX>

00000d4a <leaveStationMode>:
	leaveStationMode(); 
	stationModeEnable = 0;
}

void leaveStationMode()
{
     d4a:	cf 93       	push	r28
     d4c:	df 93       	push	r29
	leaveStation = 1; 
     d4e:	81 e0       	ldi	r24, 0x01	; 1
     d50:	80 93 3f 01 	sts	0x013F, r24
	TIMSK0 = 0x00;
     d54:	10 92 6e 00 	sts	0x006E, r1
     d58:	c1 e3       	ldi	r28, 0x31	; 49
     d5a:	d0 e0       	ldi	r29, 0x00	; 0
	for (int falseDataCount = 1; falseDataCount < 50; falseDataCount++)
	{
		TX_sensor_data();
     d5c:	c2 df       	rcall	.-124    	; 0xce2 <TX_sensor_data>
     d5e:	21 97       	sbiw	r28, 0x01	; 1

void leaveStationMode()
{
	leaveStation = 1; 
	TIMSK0 = 0x00;
	for (int falseDataCount = 1; falseDataCount < 50; falseDataCount++)
     d60:	e9 f7       	brne	.-6      	; 0xd5c <leaveStationMode+0x12>
	{
		TX_sensor_data();
	}
	TIMSK0 = 0x06;
     d62:	86 e0       	ldi	r24, 0x06	; 6
     d64:	80 93 6e 00 	sts	0x006E, r24
	leaveStation = 0;
     d68:	10 92 3f 01 	sts	0x013F, r1
}
     d6c:	df 91       	pop	r29
     d6e:	cf 91       	pop	r28
     d70:	08 95       	ret

00000d72 <waitForUserInputStartAbort>:


/*Called by pickupMode(). Waiting for the user to press either START PICKUP or ABORT PICKUP */
void waitForUserInputStartAbort()
{
	while (waitingForStartAbort == 0) {
     d72:	80 91 58 01 	lds	r24, 0x0158
     d76:	88 23       	and	r24, r24
     d78:	e1 f3       	breq	.-8      	; 0xd72 <waitForUserInputStartAbort>
		
	}
	waitingForStartAbort = 0;
     d7a:	10 92 58 01 	sts	0x0158, r1
     d7e:	08 95       	ret

00000d80 <waitForUserInputEndPickup>:


/*Called by pickupMode(). Waiting for the user to finish pick up and press END PICKUP */
void waitForUserInputEndPickup()
{
	while (waitingForEndPickup == 0) {
     d80:	80 91 82 01 	lds	r24, 0x0182
     d84:	88 23       	and	r24, r24
     d86:	e1 f3       	breq	.-8      	; 0xd80 <waitForUserInputEndPickup>
		
	}
	waitingForEndPickup = 0;
     d88:	10 92 82 01 	sts	0x0182, r1
     d8c:	08 95       	ret

00000d8e <itemInHistory>:
		// Do nothing -> exit code -> leave station mode
	}
}

/*Called by pickupMode(). */
_Bool itemInHistory(){
     d8e:	1f 93       	push	r17
     d90:	cf 93       	push	r28
     d92:	df 93       	push	r29
uint8_t cntEqualElements = 0;
	
	for (uint8_t cntHistory = 0; cntHistory < historySize; cntHistory++) //Stegar igenom historiken
     d94:	d0 91 83 01 	lds	r29, 0x0183
     d98:	d1 11       	cpse	r29, r1
     d9a:	12 c0       	rjmp	.+36     	; 0xdc0 <itemInHistory+0x32>
			
		}
		cntEqualElements = 0;
	}
	
	return 0; //If no
     d9c:	80 e0       	ldi	r24, 0x00	; 0
     d9e:	26 c0       	rjmp	.+76     	; 0xdec <itemInHistory+0x5e>
	
	for (uint8_t cntHistory = 0; cntHistory < historySize; cntHistory++) //Stegar igenom historiken
	{
		for (uint8_t cntDigit = 0; cntDigit < 12; cntDigit++) //kollar varje digit
		{
			if (newStream[cntDigit] == history[cntHistory][cntDigit])
     da0:	71 91       	ld	r23, Z+
     da2:	6d 91       	ld	r22, X+
     da4:	76 13       	cpse	r23, r22
     da6:	01 c0       	rjmp	.+2      	; 0xdaa <itemInHistory+0x1c>
			{
				cntEqualElements++;
     da8:	cf 5f       	subi	r28, 0xFF	; 255
			}
			
			if (cntEqualElements == 12)
     daa:	cc 30       	cpi	r28, 0x0C	; 12
     dac:	f1 f0       	breq	.+60     	; 0xdea <itemInHistory+0x5c>
_Bool itemInHistory(){
uint8_t cntEqualElements = 0;
	
	for (uint8_t cntHistory = 0; cntHistory < historySize; cntHistory++) //Stegar igenom historiken
	{
		for (uint8_t cntDigit = 0; cntDigit < 12; cntDigit++) //kollar varje digit
     dae:	e8 17       	cp	r30, r24
     db0:	f9 07       	cpc	r31, r25
     db2:	b1 f7       	brne	.-20     	; 0xda0 <itemInHistory+0x12>
     db4:	2f 5f       	subi	r18, 0xFF	; 255
     db6:	3f 4f       	sbci	r19, 0xFF	; 255

/*Called by pickupMode(). */
_Bool itemInHistory(){
uint8_t cntEqualElements = 0;
	
	for (uint8_t cntHistory = 0; cntHistory < historySize; cntHistory++) //Stegar igenom historiken
     db8:	2d 17       	cp	r18, r29
     dba:	48 f0       	brcs	.+18     	; 0xdce <itemInHistory+0x40>
			
		}
		cntEqualElements = 0;
	}
	
	return 0; //If no
     dbc:	80 e0       	ldi	r24, 0x00	; 0
     dbe:	16 c0       	rjmp	.+44     	; 0xdec <itemInHistory+0x5e>

/*Called by pickupMode(). */
_Bool itemInHistory(){
uint8_t cntEqualElements = 0;
	
	for (uint8_t cntHistory = 0; cntHistory < historySize; cntHistory++) //Stegar igenom historiken
     dc0:	20 e0       	ldi	r18, 0x00	; 0
     dc2:	30 e0       	ldi	r19, 0x00	; 0
     dc4:	40 e3       	ldi	r20, 0x30	; 48
     dc6:	51 e0       	ldi	r21, 0x01	; 1
		// Do nothing -> exit code -> leave station mode
	}
}

/*Called by pickupMode(). */
_Bool itemInHistory(){
     dc8:	8c e3       	ldi	r24, 0x3C	; 60
     dca:	91 e0       	ldi	r25, 0x01	; 1
     dcc:	10 e0       	ldi	r17, 0x00	; 0
     dce:	fa 01       	movw	r30, r20
     dd0:	d9 01       	movw	r26, r18
     dd2:	aa 0f       	add	r26, r26
     dd4:	bb 1f       	adc	r27, r27
     dd6:	a2 0f       	add	r26, r18
     dd8:	b3 1f       	adc	r27, r19
     dda:	aa 0f       	add	r26, r26
     ddc:	bb 1f       	adc	r27, r27
     dde:	aa 0f       	add	r26, r26
     de0:	bb 1f       	adc	r27, r27
     de2:	a0 50       	subi	r26, 0x00	; 0
     de4:	bf 4f       	sbci	r27, 0xFF	; 255
     de6:	c1 2f       	mov	r28, r17
     de8:	db cf       	rjmp	.-74     	; 0xda0 <itemInHistory+0x12>
				cntEqualElements++;
			}
			
			if (cntEqualElements == 12)
			{
				return 1;
     dea:	81 e0       	ldi	r24, 0x01	; 1
		}
		cntEqualElements = 0;
	}
	
	return 0; //If no
}
     dec:	df 91       	pop	r29
     dee:	cf 91       	pop	r28
     df0:	1f 91       	pop	r17
     df2:	08 95       	ret

00000df4 <cargoEqualsNewStream>:

_Bool cargoEqualsNewStream(){
	for (uint8_t cmpel = 0; cmpel<12; cmpel++)
	{
		if (cargo[cmpel] != newStream[cmpel])
     df4:	90 91 24 01 	lds	r25, 0x0124
     df8:	80 91 30 01 	lds	r24, 0x0130
     dfc:	98 13       	cpse	r25, r24
     dfe:	0f c0       	rjmp	.+30     	; 0xe1e <cargoEqualsNewStream+0x2a>
     e00:	e5 e2       	ldi	r30, 0x25	; 37
     e02:	f1 e0       	ldi	r31, 0x01	; 1
     e04:	a1 e3       	ldi	r26, 0x31	; 49
     e06:	b1 e0       	ldi	r27, 0x01	; 1
	}
	
	return 0; //If no
}

_Bool cargoEqualsNewStream(){
     e08:	80 e3       	ldi	r24, 0x30	; 48
     e0a:	91 e0       	ldi	r25, 0x01	; 1
	for (uint8_t cmpel = 0; cmpel<12; cmpel++)
	{
		if (cargo[cmpel] != newStream[cmpel])
     e0c:	31 91       	ld	r19, Z+
     e0e:	2d 91       	ld	r18, X+
     e10:	32 13       	cpse	r19, r18
     e12:	07 c0       	rjmp	.+14     	; 0xe22 <cargoEqualsNewStream+0x2e>
	
	return 0; //If no
}

_Bool cargoEqualsNewStream(){
	for (uint8_t cmpel = 0; cmpel<12; cmpel++)
     e14:	e8 17       	cp	r30, r24
     e16:	f9 07       	cpc	r31, r25
     e18:	c9 f7       	brne	.-14     	; 0xe0c <cargoEqualsNewStream+0x18>
		{
			return 0;
		}
	}

	return 1;
     e1a:	81 e0       	ldi	r24, 0x01	; 1
     e1c:	08 95       	ret
_Bool cargoEqualsNewStream(){
	for (uint8_t cmpel = 0; cmpel<12; cmpel++)
	{
		if (cargo[cmpel] != newStream[cmpel])
		{
			return 0;
     e1e:	80 e0       	ldi	r24, 0x00	; 0
     e20:	08 95       	ret
     e22:	80 e0       	ldi	r24, 0x00	; 0
		}
	}

	return 1;
}
     e24:	08 95       	ret

00000e26 <powerRFID>:

void powerRFID(_Bool power){
	if (power == 1)
     e26:	88 23       	and	r24, r24
     e28:	11 f0       	breq	.+4      	; 0xe2e <powerRFID+0x8>
	{
 		PORTD &= ~(1<<PORTD5);
     e2a:	5d 98       	cbi	0x0b, 5	; 11
     e2c:	08 95       	ret
		//((Port on AVR connected to RFIDs "Enable") = LOW) => Power up byte reader
	}
	else
	{
		PORTD |= (1<<PORTD5);
     e2e:	5d 9a       	sbi	0x0b, 5	; 11
     e30:	08 95       	ret

00000e32 <printOnLCD>:
}

/*
Prints the entire RFID tag on the display.
*/
void printOnLCD(_Bool shipment){ //Eventuellt gra generisk om vi vill skicka in andra vrden n cargo
     e32:	0f 93       	push	r16
     e34:	1f 93       	push	r17
     e36:	cf 93       	push	r28
     e38:	df 93       	push	r29
     e3a:	c8 2f       	mov	r28, r24
	hd44780_l_clear_disp(&low_conf);
     e3c:	8a e5       	ldi	r24, 0x5A	; 90
     e3e:	91 e0       	ldi	r25, 0x01	; 1
     e40:	04 dd       	rcall	.-1528   	; 0x84a <hd44780_l_clear_disp>
	
	if (shipment == 1)
     e42:	cc 23       	and	r28, r28
     e44:	01 f1       	breq	.+64     	; 0xe86 <printOnLCD+0x54>
	{
		hd44780_l_write(&low_conf, 0x52);	//R
     e46:	62 e5       	ldi	r22, 0x52	; 82
     e48:	8a e5       	ldi	r24, 0x5A	; 90
     e4a:	91 e0       	ldi	r25, 0x01	; 1
     e4c:	46 dd       	rcall	.-1396   	; 0x8da <hd44780_l_write>
		hd44780_l_write(&low_conf, 0x46);	//F
     e4e:	66 e4       	ldi	r22, 0x46	; 70
     e50:	8a e5       	ldi	r24, 0x5A	; 90
     e52:	91 e0       	ldi	r25, 0x01	; 1
     e54:	42 dd       	rcall	.-1404   	; 0x8da <hd44780_l_write>
		hd44780_l_write(&low_conf, 0x49);	//I
     e56:	69 e4       	ldi	r22, 0x49	; 73
     e58:	8a e5       	ldi	r24, 0x5A	; 90
     e5a:	91 e0       	ldi	r25, 0x01	; 1
     e5c:	3e dd       	rcall	.-1412   	; 0x8da <hd44780_l_write>
		hd44780_l_write(&low_conf, 0x44);	//D
     e5e:	64 e4       	ldi	r22, 0x44	; 68
     e60:	8a e5       	ldi	r24, 0x5A	; 90
     e62:	91 e0       	ldi	r25, 0x01	; 1
     e64:	3a dd       	rcall	.-1420   	; 0x8da <hd44780_l_write>
		hd44780_l_write(&low_conf, 0x3A);	//:
     e66:	6a e3       	ldi	r22, 0x3A	; 58
     e68:	8a e5       	ldi	r24, 0x5A	; 90
     e6a:	91 e0       	ldi	r25, 0x01	; 1
     e6c:	36 dd       	rcall	.-1428   	; 0x8da <hd44780_l_write>
     e6e:	c5 e2       	ldi	r28, 0x25	; 37
     e70:	d1 e0       	ldi	r29, 0x01	; 1
}

/*
Prints the entire RFID tag on the display.
*/
void printOnLCD(_Bool shipment){ //Eventuellt gra generisk om vi vill skicka in andra vrden n cargo
     e72:	0f e2       	ldi	r16, 0x2F	; 47
     e74:	11 e0       	ldi	r17, 0x01	; 1
		hd44780_l_write(&low_conf, 0x3A);	//:

		
		for(int i = 1; i<11; i++)	//Prints the tag's ID bytes.
		{
			hd44780_l_write(&low_conf, cargo[i]);
     e76:	69 91       	ld	r22, Y+
     e78:	8a e5       	ldi	r24, 0x5A	; 90
     e7a:	91 e0       	ldi	r25, 0x01	; 1
     e7c:	2e dd       	rcall	.-1444   	; 0x8da <hd44780_l_write>
		hd44780_l_write(&low_conf, 0x49);	//I
		hd44780_l_write(&low_conf, 0x44);	//D
		hd44780_l_write(&low_conf, 0x3A);	//:

		
		for(int i = 1; i<11; i++)	//Prints the tag's ID bytes.
     e7e:	c0 17       	cp	r28, r16
     e80:	d1 07       	cpc	r29, r17
     e82:	c9 f7       	brne	.-14     	; 0xe76 <printOnLCD+0x44>
     e84:	20 c0       	rjmp	.+64     	; 0xec6 <printOnLCD+0x94>
			hd44780_l_write(&low_conf, cargo[i]);
		}
	}
	else
	{
		hd44780_l_write(&low_conf, 0x4E);	//N
     e86:	6e e4       	ldi	r22, 0x4E	; 78
     e88:	8a e5       	ldi	r24, 0x5A	; 90
     e8a:	91 e0       	ldi	r25, 0x01	; 1
     e8c:	26 dd       	rcall	.-1460   	; 0x8da <hd44780_l_write>
		hd44780_l_write(&low_conf, 0x4F);	//O
     e8e:	6f e4       	ldi	r22, 0x4F	; 79
     e90:	8a e5       	ldi	r24, 0x5A	; 90
     e92:	91 e0       	ldi	r25, 0x01	; 1
     e94:	22 dd       	rcall	.-1468   	; 0x8da <hd44780_l_write>
		hd44780_l_write(&low_conf, 0x20);	//
     e96:	60 e2       	ldi	r22, 0x20	; 32
     e98:	8a e5       	ldi	r24, 0x5A	; 90
     e9a:	91 e0       	ldi	r25, 0x01	; 1
     e9c:	1e dd       	rcall	.-1476   	; 0x8da <hd44780_l_write>
		
		hd44780_l_write(&low_conf, 0x43);	//C
     e9e:	63 e4       	ldi	r22, 0x43	; 67
     ea0:	8a e5       	ldi	r24, 0x5A	; 90
     ea2:	91 e0       	ldi	r25, 0x01	; 1
     ea4:	1a dd       	rcall	.-1484   	; 0x8da <hd44780_l_write>
		hd44780_l_write(&low_conf, 0x41);	//A
     ea6:	61 e4       	ldi	r22, 0x41	; 65
     ea8:	8a e5       	ldi	r24, 0x5A	; 90
     eaa:	91 e0       	ldi	r25, 0x01	; 1
     eac:	16 dd       	rcall	.-1492   	; 0x8da <hd44780_l_write>
		hd44780_l_write(&low_conf, 0x52);	//R
     eae:	62 e5       	ldi	r22, 0x52	; 82
     eb0:	8a e5       	ldi	r24, 0x5A	; 90
     eb2:	91 e0       	ldi	r25, 0x01	; 1
     eb4:	12 dd       	rcall	.-1500   	; 0x8da <hd44780_l_write>
		hd44780_l_write(&low_conf, 0x47);	//G
     eb6:	67 e4       	ldi	r22, 0x47	; 71
     eb8:	8a e5       	ldi	r24, 0x5A	; 90
     eba:	91 e0       	ldi	r25, 0x01	; 1
     ebc:	0e dd       	rcall	.-1508   	; 0x8da <hd44780_l_write>
		hd44780_l_write(&low_conf, 0x4F);	//O
     ebe:	6f e4       	ldi	r22, 0x4F	; 79
     ec0:	8a e5       	ldi	r24, 0x5A	; 90
     ec2:	91 e0       	ldi	r25, 0x01	; 1
     ec4:	0a dd       	rcall	.-1516   	; 0x8da <hd44780_l_write>

	}
	

}
     ec6:	df 91       	pop	r29
     ec8:	cf 91       	pop	r28
     eca:	1f 91       	pop	r17
     ecc:	0f 91       	pop	r16
     ece:	08 95       	ret

00000ed0 <deliveryMode>:


/*Called by stationMode(). Enters if carrying object. */
void deliveryMode(){
	
	if (cargoEqualsNewStream() == 1) //Checks if the station is the correct station to leave cargo
     ed0:	91 df       	rcall	.-222    	; 0xdf4 <cargoEqualsNewStream>
     ed2:	88 23       	and	r24, r24
     ed4:	11 f1       	breq	.+68     	; 0xf1a <deliveryMode+0x4a>
     ed6:	e4 e2       	ldi	r30, 0x24	; 36
     ed8:	f1 e0       	ldi	r31, 0x01	; 1
	{
		for (uint8_t cntDigit = 0; cntDigit < 12; cntDigit++) //Adds the completed station to history
		{
			history[historySize][cntDigit] = cargo[cntDigit];
     eda:	80 91 83 01 	lds	r24, 0x0183
     ede:	90 e0       	ldi	r25, 0x00	; 0
}



/*Called by stationMode(). Enters if carrying object. */
void deliveryMode(){
     ee0:	dc 01       	movw	r26, r24
     ee2:	aa 0f       	add	r26, r26
     ee4:	bb 1f       	adc	r27, r27
     ee6:	8a 0f       	add	r24, r26
     ee8:	9b 1f       	adc	r25, r27
     eea:	dc 01       	movw	r26, r24
     eec:	aa 0f       	add	r26, r26
     eee:	bb 1f       	adc	r27, r27
     ef0:	aa 0f       	add	r26, r26
     ef2:	bb 1f       	adc	r27, r27
     ef4:	a0 50       	subi	r26, 0x00	; 0
     ef6:	bf 4f       	sbci	r27, 0xFF	; 255
     ef8:	80 e3       	ldi	r24, 0x30	; 48
     efa:	91 e0       	ldi	r25, 0x01	; 1
	
	if (cargoEqualsNewStream() == 1) //Checks if the station is the correct station to leave cargo
	{
		for (uint8_t cntDigit = 0; cntDigit < 12; cntDigit++) //Adds the completed station to history
		{
			history[historySize][cntDigit] = cargo[cntDigit];
     efc:	21 91       	ld	r18, Z+
     efe:	2d 93       	st	X+, r18
/*Called by stationMode(). Enters if carrying object. */
void deliveryMode(){
	
	if (cargoEqualsNewStream() == 1) //Checks if the station is the correct station to leave cargo
	{
		for (uint8_t cntDigit = 0; cntDigit < 12; cntDigit++) //Adds the completed station to history
     f00:	e8 17       	cp	r30, r24
     f02:	f9 07       	cpc	r31, r25
     f04:	d9 f7       	brne	.-10     	; 0xefc <deliveryMode+0x2c>
		{
			history[historySize][cntDigit] = cargo[cntDigit];
		}
		historySize++;
     f06:	80 91 83 01 	lds	r24, 0x0183
     f0a:	8f 5f       	subi	r24, 0xFF	; 255
     f0c:	80 93 83 01 	sts	0x0183, r24
		
		waitForUserInputStartAbort();
     f10:	30 df       	rcall	.-416    	; 0xd72 <waitForUserInputStartAbort>
		
		printOnLCD(0); //Prints "No Cargo" on LCD
     f12:	80 e0       	ldi	r24, 0x00	; 0
     f14:	8e df       	rcall	.-228    	; 0xe32 <printOnLCD>
		carryItem = 0;
     f16:	10 92 50 01 	sts	0x0150, r1
     f1a:	08 95       	ret

00000f1c <pickUpMode>:
}


/*Called by stationMode(). Enters if not carrying object.*/
void pickUpMode(){
	if (itemInHistory() == 1) //checks if mission completed for this station
     f1c:	38 df       	rcall	.-400    	; 0xd8e <itemInHistory>
     f1e:	81 11       	cpse	r24, r1
     f20:	15 c0       	rjmp	.+42     	; 0xf4c <pickUpMode+0x30>
	{
		// Do nothing -> exit code -> leave station mode
	}
	else
	{
		waitForUserInputStartAbort();
     f22:	27 df       	rcall	.-434    	; 0xd72 <waitForUserInputStartAbort>
		
		if (pickUpItem == 1)
     f24:	80 91 53 01 	lds	r24, 0x0153
     f28:	88 23       	and	r24, r24
     f2a:	81 f0       	breq	.+32     	; 0xf4c <pickUpMode+0x30>
     f2c:	e0 e3       	ldi	r30, 0x30	; 48
     f2e:	f1 e0       	ldi	r31, 0x01	; 1
     f30:	a4 e2       	ldi	r26, 0x24	; 36
     f32:	b1 e0       	ldi	r27, 0x01	; 1
	waitingForEndPickup = 0;
}


/*Called by stationMode(). Enters if not carrying object.*/
void pickUpMode(){
     f34:	8c e3       	ldi	r24, 0x3C	; 60
     f36:	91 e0       	ldi	r25, 0x01	; 1
		
		if (pickUpItem == 1)
		{
			for (uint8_t cntDigit = 0; cntDigit<12; cntDigit++) //Storing RFID tag in cargo
			{
				cargo[cntDigit] = newStream[cntDigit];
     f38:	21 91       	ld	r18, Z+
     f3a:	2d 93       	st	X+, r18
	{
		waitForUserInputStartAbort();
		
		if (pickUpItem == 1)
		{
			for (uint8_t cntDigit = 0; cntDigit<12; cntDigit++) //Storing RFID tag in cargo
     f3c:	e8 17       	cp	r30, r24
     f3e:	f9 07       	cpc	r31, r25
     f40:	d9 f7       	brne	.-10     	; 0xf38 <pickUpMode+0x1c>
			{
				cargo[cntDigit] = newStream[cntDigit];
			}
			carryItem = 1; // Shows that the robot is carrying an object
     f42:	81 e0       	ldi	r24, 0x01	; 1
     f44:	80 93 50 01 	sts	0x0150, r24
			printOnLCD(1); //Printing cargo RFID tag on display
     f48:	74 df       	rcall	.-280    	; 0xe32 <printOnLCD>
			waitForUserInputEndPickup(); // the item has been pickup up and leave stationMode()
     f4a:	1a cf       	rjmp	.-460    	; 0xd80 <waitForUserInputEndPickup>
     f4c:	08 95       	ret

00000f4e <stationMode>:


/*Called by transportMode(). Reads rfid tag and enters pickupMode() or deliveryMode() if the robot is carrying object or not */
void stationMode(){
	
	powerRFID(1);
     f4e:	81 e0       	ldi	r24, 0x01	; 1
     f50:	6a df       	rcall	.-300    	; 0xe26 <powerRFID>
	
	while (streamFilled == 0)
     f52:	80 91 52 01 	lds	r24, 0x0152
     f56:	88 23       	and	r24, r24
     f58:	e1 f3       	breq	.-8      	; 0xf52 <stationMode+0x4>
	{
		//Do nothing and wait for interupts -> do not leave loop unitil entire newStream is filled;
	}
	streamFilled = 0;
     f5a:	10 92 52 01 	sts	0x0152, r1
	if (carryItem == 0)
     f5e:	80 91 50 01 	lds	r24, 0x0150
     f62:	81 11       	cpse	r24, r1
     f64:	02 c0       	rjmp	.+4      	; 0xf6a <stationMode+0x1c>
	{
		pickUpMode();
     f66:	da df       	rcall	.-76     	; 0xf1c <pickUpMode>
     f68:	01 c0       	rjmp	.+2      	; 0xf6c <stationMode+0x1e>
	}
	else
	{
		deliveryMode();
     f6a:	b2 df       	rcall	.-156    	; 0xed0 <deliveryMode>
	}
	
	leaveStationMode(); 
     f6c:	ee de       	rcall	.-548    	; 0xd4a <leaveStationMode>
	stationModeEnable = 0;
     f6e:	10 92 4a 01 	sts	0x014A, r1
     f72:	08 95       	ret

00000f74 <setupRFID>:
	

}

void setupRFID(){
	UCSR1B |= (1<<RXEN1) | (1 << RXCIE1); //Enable RX1 and the RX complete interrupt
     f74:	e9 ec       	ldi	r30, 0xC9	; 201
     f76:	f0 e0       	ldi	r31, 0x00	; 0
     f78:	80 81       	ld	r24, Z
     f7a:	80 69       	ori	r24, 0x90	; 144
     f7c:	80 83       	st	Z, r24
	UCSR1C |= (1 << UCSZ11)|(1 << UCSZ10); //set data length to 8-bit;
     f7e:	ea ec       	ldi	r30, 0xCA	; 202
     f80:	f0 e0       	ldi	r31, 0x00	; 0
     f82:	80 81       	ld	r24, Z
     f84:	86 60       	ori	r24, 0x06	; 6
     f86:	80 83       	st	Z, r24
	UBRR1H = (383 >> 8);
     f88:	81 e0       	ldi	r24, 0x01	; 1
     f8a:	80 93 cd 00 	sts	0x00CD, r24
	UBRR1L = 0b01111111; //Sets baudvalue in AVR to 383, which gives baude rate 2400. baudvalue = (Fcpu/baudrate*16)-1
     f8e:	8f e7       	ldi	r24, 0x7F	; 127
     f90:	80 93 cc 00 	sts	0x00CC, r24
	DDRD |= (1<<DDD5);
     f94:	55 9a       	sbi	0x0a, 5	; 10
	PORTD |= (1<<PORTD5);
     f96:	5d 9a       	sbi	0x0b, 5	; 11
     f98:	08 95       	ret

00000f9a <setupWarehouse>:
}

void setupWarehouse(){
	streamFilled = 0;
     f9a:	10 92 52 01 	sts	0x0152, r1
	carryItem = 0;
     f9e:	10 92 50 01 	sts	0x0150, r1
	pickUpItem = 0;
     fa2:	10 92 53 01 	sts	0x0153, r1
	waitingForStartAbort = 0;
     fa6:	10 92 58 01 	sts	0x0158, r1
	waitingForEndPickup = 0;
     faa:	10 92 82 01 	sts	0x0182, r1
	leaveStation = 0;
     fae:	10 92 3f 01 	sts	0x013F, r1
	stationModeEnable = 0;
     fb2:	10 92 4a 01 	sts	0x014A, r1
	digit = 0;
     fb6:	10 92 3d 01 	sts	0x013D, r1
	historySize = 0;
     fba:	10 92 83 01 	sts	0x0183, r1
     fbe:	08 95       	ret

00000fc0 <setupLCD>:
	}

void setupLCD(){
     fc0:	0f 93       	push	r16
	// setting I/O configuration for pins
	DDRA = 0xFF; //data outputs to the LCD
     fc2:	8f ef       	ldi	r24, 0xFF	; 255
     fc4:	81 b9       	out	0x01, r24	; 1
	DDRB |= (1 << DDB1)|(1 << DDB0); //rs, rw and en are outputs
     fc6:	84 b1       	in	r24, 0x04	; 4
     fc8:	83 60       	ori	r24, 0x03	; 3
     fca:	84 b9       	out	0x04, r24	; 4
	DDRC |=	(1<< DDC6); 
     fcc:	3e 9a       	sbi	0x07, 6	; 7
	// setting pin numbers and which ports on the LCD the ports on the AVR are hooked up to
	low_conf.rs_i = 1;
     fce:	21 e0       	ldi	r18, 0x01	; 1
     fd0:	20 93 5a 01 	sts	0x015A, r18
	low_conf.rw_i = 0;
     fd4:	10 92 5b 01 	sts	0x015B, r1
	low_conf.en_i = 6;
     fd8:	86 e0       	ldi	r24, 0x06	; 6
     fda:	80 93 5c 01 	sts	0x015C, r24
	
	low_conf.db7_i = 7;
     fde:	97 e0       	ldi	r25, 0x07	; 7
     fe0:	90 93 5d 01 	sts	0x015D, r25
	low_conf.db6_i = 6;
     fe4:	80 93 5e 01 	sts	0x015E, r24
	low_conf.db5_i = 5;
     fe8:	85 e0       	ldi	r24, 0x05	; 5
     fea:	80 93 5f 01 	sts	0x015F, r24
	low_conf.db4_i = 4;
     fee:	84 e0       	ldi	r24, 0x04	; 4
     ff0:	80 93 60 01 	sts	0x0160, r24
	low_conf.db3_i = 3;
     ff4:	83 e0       	ldi	r24, 0x03	; 3
     ff6:	80 93 61 01 	sts	0x0161, r24
	low_conf.db2_i = 2;
     ffa:	82 e0       	ldi	r24, 0x02	; 2
     ffc:	80 93 62 01 	sts	0x0162, r24
	low_conf.db1_i = 1;
    1000:	20 93 63 01 	sts	0x0163, r18
	low_conf.db0_i = 0;
    1004:	10 92 64 01 	sts	0x0164, r1
	low_conf.rs_port = &PORTB;
    1008:	85 e2       	ldi	r24, 0x25	; 37
    100a:	90 e0       	ldi	r25, 0x00	; 0
    100c:	90 93 66 01 	sts	0x0166, r25
    1010:	80 93 65 01 	sts	0x0165, r24
	low_conf.rw_port = &PORTB;
    1014:	90 93 68 01 	sts	0x0168, r25
    1018:	80 93 67 01 	sts	0x0167, r24
	low_conf.en_port = &PORTC;
    101c:	88 e2       	ldi	r24, 0x28	; 40
    101e:	90 e0       	ldi	r25, 0x00	; 0
    1020:	90 93 6a 01 	sts	0x016A, r25
    1024:	80 93 69 01 	sts	0x0169, r24
	low_conf.db7_port = &PORTA;
    1028:	82 e2       	ldi	r24, 0x22	; 34
    102a:	90 e0       	ldi	r25, 0x00	; 0
    102c:	90 93 6c 01 	sts	0x016C, r25
    1030:	80 93 6b 01 	sts	0x016B, r24
	low_conf.db6_port = &PORTA;
    1034:	90 93 6e 01 	sts	0x016E, r25
    1038:	80 93 6d 01 	sts	0x016D, r24
	low_conf.db5_port = &PORTA;
    103c:	90 93 70 01 	sts	0x0170, r25
    1040:	80 93 6f 01 	sts	0x016F, r24
	low_conf.db4_port = &PORTA;
    1044:	90 93 72 01 	sts	0x0172, r25
    1048:	80 93 71 01 	sts	0x0171, r24
	low_conf.db3_port = &PORTA;
    104c:	90 93 74 01 	sts	0x0174, r25
    1050:	80 93 73 01 	sts	0x0173, r24
	low_conf.db2_port = &PORTA;
    1054:	90 93 76 01 	sts	0x0176, r25
    1058:	80 93 75 01 	sts	0x0175, r24
	low_conf.db1_port = &PORTA;
    105c:	90 93 78 01 	sts	0x0178, r25
    1060:	80 93 77 01 	sts	0x0177, r24
	low_conf.db0_port = &PORTA;
    1064:	90 93 7a 01 	sts	0x017A, r25
    1068:	80 93 79 01 	sts	0x0179, r24
	low_conf.line1_base_addr = 0x00;
    106c:	10 92 7b 01 	sts	0x017B, r1
	low_conf.line2_base_addr = 0x40;
    1070:	80 e4       	ldi	r24, 0x40	; 64
    1072:	80 93 7c 01 	sts	0x017C, r24
	low_conf.dl = HD44780_L_FS_DL_8BIT;
    1076:	20 93 7d 01 	sts	0x017D, r18
	hd44780_l_init(&low_conf, HD44780_L_FS_N_DUAL, HD44780_L_FS_F_58, HD44780_L_EMS_ID_INC, HD44780_L_EMS_S_OFF);
    107a:	00 e0       	ldi	r16, 0x00	; 0
    107c:	40 e0       	ldi	r20, 0x00	; 0
    107e:	61 e0       	ldi	r22, 0x01	; 1
    1080:	8a e5       	ldi	r24, 0x5A	; 90
    1082:	91 e0       	ldi	r25, 0x01	; 1
    1084:	35 dc       	rcall	.-1942   	; 0x8f0 <hd44780_l_init>
	hd44780_l_disp(&low_conf, HD44780_L_DISP_D_ON, HD44780_L_DISP_C_OFF, HD44780_L_DISP_B_OFF);
    1086:	20 e0       	ldi	r18, 0x00	; 0
    1088:	40 e0       	ldi	r20, 0x00	; 0
    108a:	61 e0       	ldi	r22, 0x01	; 1
    108c:	8a e5       	ldi	r24, 0x5A	; 90
    108e:	91 e0       	ldi	r25, 0x01	; 1
    1090:	f9 db       	rcall	.-2062   	; 0x884 <hd44780_l_disp>
	
    1092:	0f 91       	pop	r16
    1094:	08 95       	ret

00001096 <_exit>:
    1096:	f8 94       	cli

00001098 <__stop_program>:
    1098:	ff cf       	rjmp	.-2      	; 0x1098 <__stop_program>
